A51 MACRO ASSEMBLER  INSTRUCTION                                                          10/08/2013 10:14:03 PAGE     1


MACRO ASSEMBLER A51 V8.02b
OBJECT MODULE PLACED IN instruction.OBJ
ASSEMBLER INVOKED BY: C:\myprog\Keil\C51\BIN\A51.EXE instruction.src PR(.\instruction.ls1) EP DEBUG

LOC  OBJ            LINE     SOURCE

                       1     ; .\instruction.SRC generated from: instruction.c
                       2     ; COMPILER INVOKED BY:
                       3     ;        C:\myprog\Keil\C51\BIN\C51.EXE instruction.c BROWSE DEBUG OBJECTEXTEND TABS(2) SRC
                             (.\instruction.SRC)
                       4     
                       5     $nomod51 
                       6     
                       7     NAME    INSTRUCTION
                       8     
  0080                 9     P0      DATA    080H
  0090                10     P1      DATA    090H
  00A0                11     P2      DATA    0A0H
  00B0                12     P3      DATA    0B0H
  00B4                13     T0      BIT     0B0H.4
  00D6                14     AC      BIT     0D0H.6
  00B5                15     T1      BIT     0B0H.5
  0090                16     T2      BIT     090H.0
  00AF                17     EA      BIT     0A8H.7
  00A8                18     IE      DATA    0A8H
  00CE                19     EXF2    BIT     0C8H.6
  00B7                20     RD      BIT     0B0H.7
  00AC                21     ES      BIT     0A8H.4
  00B8                22     IP      DATA    0B8H
  0098                23     RI      BIT     098H.0
  00B2                24     INT0    BIT     0B0H.2
  00D7                25     CY      BIT     0D0H.7
  0099                26     TI      BIT     098H.1
  00B3                27     INT1    BIT     0B0H.3
  00CB                28     RCAP2H  DATA    0CBH
  00BC                29     PS      BIT     0B8H.4
  0081                30     SP      DATA    081H
  0091                31     T2EX    BIT     090H.1
  00D2                32     OV      BIT     0D0H.2
  00CA                33     RCAP2L  DATA    0CAH
  00C9                34     C_T2    BIT     0C8H.1
  00B6                35     WR      BIT     0B0H.6
  00CD                36     RCLK    BIT     0C8H.5
  00CC                37     TCLK    BIT     0C8H.4
  0099                38     SBUF    DATA    099H
  0087                39     PCON    DATA    087H
  0098                40     SCON    DATA    098H
  0089                41     TMOD    DATA    089H
  0088                42     TCON    DATA    088H
  0089                43     IE0     BIT     088H.1
  008B                44     IE1     BIT     088H.3
  00F0                45     B       DATA    0F0H
  00C8                46     CP_RL2  BIT     0C8H.0
  00E0                47     ACC     DATA    0E0H
  00A9                48     ET0     BIT     0A8H.1
  00AB                49     ET1     BIT     0A8H.3
  008D                50     TF0     BIT     088H.5
  00AD                51     ET2     BIT     0A8H.5
  008F                52     TF1     BIT     088H.7
  00CF                53     TF2     BIT     0C8H.7
  009A                54     RB8     BIT     098H.2
  008C                55     TH0     DATA    08CH
  00A8                56     EX0     BIT     0A8H.0
  0088                57     IT0     BIT     088H.0
A51 MACRO ASSEMBLER  INSTRUCTION                                                          10/08/2013 10:14:03 PAGE     2

  008D                58     TH1     DATA    08DH
  009B                59     TB8     BIT     098H.3
  00AA                60     EX1     BIT     0A8H.2
  008A                61     IT1     BIT     088H.2
  00CD                62     TH2     DATA    0CDH
  00D0                63     P       BIT     0D0H.0
  009F                64     SM0     BIT     098H.7
  008A                65     TL0     DATA    08AH
  009E                66     SM1     BIT     098H.6
  008B                67     TL1     DATA    08BH
  009D                68     SM2     BIT     098H.5
  00CC                69     TL2     DATA    0CCH
  00B9                70     PT0     BIT     0B8H.1
  00BB                71     PT1     BIT     0B8H.3
  00D3                72     RS0     BIT     0D0H.3
  00BD                73     PT2     BIT     0B8H.5
  008C                74     TR0     BIT     088H.4
  00D4                75     RS1     BIT     0D0H.4
  008E                76     TR1     BIT     088H.6
  00CA                77     TR2     BIT     0C8H.2
  00B8                78     PX0     BIT     0B8H.0
  00BA                79     PX1     BIT     0B8H.2
  0083                80     DPH     DATA    083H
  0082                81     DPL     DATA    082H
  00CB                82     EXEN2   BIT     0C8H.3
  009C                83     REN     BIT     098H.4
  00C8                84     T2CON   DATA    0C8H
  00B0                85     RXD     BIT     0B0H.0
  00B1                86     TXD     BIT     0B0H.1
  00D5                87     F0      BIT     0D0H.5
  00D0                88     PSW     DATA    0D0H
                      89     ?PR?test_all?INSTRUCTION                 SEGMENT CODE 
                      90     ?PR?arithmetic?INSTRUCTION               SEGMENT CODE 
                      91     ?PR?add_a_rn?INSTRUCTION                 SEGMENT CODE 
                      92     ?PR?add_a_di?INSTRUCTION                 SEGMENT CODE 
                      93     ?PR?add_a_ri?INSTRUCTION                 SEGMENT CODE 
                      94     ?PR?add_a_da?INSTRUCTION                 SEGMENT CODE 
                      95     ?PR?addc_a_rn?INSTRUCTION                SEGMENT CODE 
                      96     ?PR?addc_a_di?INSTRUCTION                SEGMENT CODE 
                      97     ?PR?addc_a_ri?INSTRUCTION                SEGMENT CODE 
                      98     ?PR?addc_a_da?INSTRUCTION                SEGMENT CODE 
                      99     ?PR?subb_a_rn?INSTRUCTION                SEGMENT CODE 
                     100     ?PR?subb_a_di?INSTRUCTION                SEGMENT CODE 
                     101     ?PR?subb_a_ri?INSTRUCTION                SEGMENT CODE 
                     102     ?PR?subb_a_da?INSTRUCTION                SEGMENT CODE 
                     103     ?PR?inc_a?INSTRUCTION                    SEGMENT CODE 
                     104     ?PR?inc_rn?INSTRUCTION                   SEGMENT CODE 
                     105     ?PR?inc_di?INSTRUCTION                   SEGMENT CODE 
                     106     ?PR?inc_ri?INSTRUCTION                   SEGMENT CODE 
                     107     ?PR?inc_dp?INSTRUCTION                   SEGMENT CODE 
                     108     ?PR?dec_a?INSTRUCTION                    SEGMENT CODE 
                     109     ?PR?dec_rn?INSTRUCTION                   SEGMENT CODE 
                     110     ?PR?dec_di?INSTRUCTION                   SEGMENT CODE 
                     111     ?PR?dec_ri?INSTRUCTION                   SEGMENT CODE 
                     112     ?CO?INSTRUCTION      SEGMENT CODE 
                     113             EXTRN   CODE (_printf)
                     114             EXTRN   DATA (?_printf?BYTE)
                     115             PUBLIC  dec_ri
                     116             PUBLIC  dec_di
                     117             PUBLIC  dec_rn
                     118             PUBLIC  dec_a
                     119             PUBLIC  inc_dp
                     120             PUBLIC  inc_ri
                     121             PUBLIC  inc_di
                     122             PUBLIC  inc_rn
                     123             PUBLIC  inc_a
A51 MACRO ASSEMBLER  INSTRUCTION                                                          10/08/2013 10:14:03 PAGE     3

                     124             PUBLIC  subb_a_da
                     125             PUBLIC  subb_a_ri
                     126             PUBLIC  subb_a_di
                     127             PUBLIC  subb_a_rn
                     128             PUBLIC  addc_a_da
                     129             PUBLIC  addc_a_ri
                     130             PUBLIC  addc_a_di
                     131             PUBLIC  addc_a_rn
                     132             PUBLIC  add_a_da
                     133             PUBLIC  add_a_ri
                     134             PUBLIC  add_a_di
                     135             PUBLIC  add_a_rn
                     136             PUBLIC  arithmetic
                     137             PUBLIC  test_all
                     138     
----                 139             RSEG  ?CO?INSTRUCTION
0000                 140     ?SC_0:
0000 4144445F        141             DB  'A' ,'D' ,'D' ,'_' ,'A' ,'_' ,'R' ,'N' ,00AH,000H
0004 415F524E                
0008 0A00                    
                     142     
000A                 143     ?SC_10:
000A 4144445F        144             DB  'A' ,'D' ,'D' ,'_' ,'A' ,'_' ,'D' ,'I' ,00AH,000H
000E 415F4449                
0012 0A00                    
                     145     
0014                 146     ?SC_20:
0014 4144445F        147             DB  'A' ,'D' ,'D' ,'_' ,'A' ,'_' ,'R' ,'I' ,00AH,000H
0018 415F5249                
001C 0A00                    
                     148     
001E                 149     ?SC_30:
001E 4144445F        150             DB  'A' ,'D' ,'D' ,'_' ,'A' ,'_' ,'D' ,'A' ,00AH,000H
0022 415F4441                
0026 0A00                    
                     151     
0028                 152     ?SC_40:
0028 41444443        153             DB  'A' ,'D' ,'D' ,'C' ,'_' ,'A' ,'_' ,'R' ,'N' ,00AH
002C 5F415F52                
0030 4E0A                    
0032 00              154             DB  000H
                     155     
0033                 156     ?SC_51:
0033 41444443        157             DB  'A' ,'D' ,'D' ,'C' ,'_' ,'A' ,'_' ,'D' ,'I' ,00AH
0037 5F415F44                
003B 490A                    
003D 00              158             DB  000H
                     159     
003E                 160     ?SC_62:
003E 41444443        161             DB  'A' ,'D' ,'D' ,'C' ,'_' ,'A' ,'_' ,'R' ,'I' ,00AH
0042 5F415F52                
0046 490A                    
0048 00              162             DB  000H
                     163     
0049                 164     ?SC_73:
0049 41444443        165             DB  'A' ,'D' ,'D' ,'C' ,'_' ,'A' ,'_' ,'D' ,'A' ,00AH
004D 5F415F44                
0051 410A                    
0053 00              166             DB  000H
                     167     
0054                 168     ?SC_84:
0054 53554242        169             DB  'S' ,'U' ,'B' ,'B' ,'_' ,'A' ,'_' ,'R' ,'N' ,00AH
0058 5F415F52                
005C 4E0A                    
005E 00              170             DB  000H
                     171     
A51 MACRO ASSEMBLER  INSTRUCTION                                                          10/08/2013 10:14:03 PAGE     4

005F                 172     ?SC_95:
005F 53554242        173             DB  'S' ,'U' ,'B' ,'B' ,'_' ,'A' ,'_' ,'D' ,'I' ,00AH
0063 5F415F44                
0067 490A                    
0069 00              174             DB  000H
                     175     
006A                 176     ?SC_106:
006A 53554242        177             DB  'S' ,'U' ,'B' ,'B' ,'_' ,'A' ,'_' ,'R' ,'I' ,00AH
006E 5F415F52                
0072 490A                    
0074 00              178             DB  000H
                     179     
0075                 180     ?SC_117:
0075 53554242        181             DB  'S' ,'U' ,'B' ,'B' ,'_' ,'A' ,'_' ,'D' ,'A' ,00AH
0079 5F415F44                
007D 410A                    
007F 00              182             DB  000H
                     183     
0080                 184     ?SC_128:
0080 494E435F        185             DB  'I' ,'N' ,'C' ,'_' ,'A' ,00AH,000H
0084 410A00                  
                     186     
0087                 187     ?SC_135:
0087 494E435F        188             DB  'I' ,'N' ,'C' ,'_' ,'R' ,'N' ,00AH,000H
008B 524E0A00                
                     189     
008F                 190     ?SC_143:
008F 494E435F        191             DB  'I' ,'N' ,'C' ,'_' ,'D' ,'I' ,00AH,000H
0093 44490A00                
                     192     
0097                 193     ?SC_151:
0097 494E435F        194             DB  'I' ,'N' ,'C' ,'_' ,'R' ,'I' ,00AH,000H
009B 52490A00                
                     195     
009F                 196     ?SC_159:
009F 494E435F        197             DB  'I' ,'N' ,'C' ,'_' ,'D' ,'P' ,00AH,000H
00A3 44500A00                
                     198     
00A7                 199     ?SC_167:
00A7 4445435F        200             DB  'D' ,'E' ,'C' ,'_' ,'A' ,00AH,000H
00AB 410A00                  
                     201     
00AE                 202     ?SC_174:
00AE 4445435F        203             DB  'D' ,'E' ,'C' ,'_' ,'R' ,'N' ,00AH,000H
00B2 524E0A00                
                     204     
00B6                 205     ?SC_182:
00B6 4445435F        206             DB  'D' ,'E' ,'C' ,'_' ,'D' ,'I' ,00AH,000H
00BA 44490A00                
                     207     
00BE                 208     ?SC_190:
00BE 4445435F        209             DB  'D' ,'E' ,'C' ,'_' ,'R' ,'I' ,00AH,000H
00C2 52490A00                
                     210     
                     211     ; #include <REG52.H>
                     212     ; #include <stdio.h> 
                     213     ; #include "instruction.h"
                     214     ; 
                     215     ; void test_all(void){
                     216     
----                 217             RSEG  ?PR?test_all?INSTRUCTION
0000                 218     test_all:
                     219             USING   0
                     220                             ; SOURCE LINE # 5
                     221     ; #ifdef ARITHMETIC
                     222     ;   arithmetic();  
A51 MACRO ASSEMBLER  INSTRUCTION                                                          10/08/2013 10:14:03 PAGE     5

                     223                             ; SOURCE LINE # 7
0000 020000   F      224             LJMP    arithmetic
                     225     ; END OF test_all
                     226     
                     227     ; #endif
                     228     ; }
                     229     ; 
                     230     ; void arithmetic(void){
                     231     
----                 232             RSEG  ?PR?arithmetic?INSTRUCTION
0000                 233     arithmetic:
                     234             USING   0
                     235                             ; SOURCE LINE # 11
                     236     ; #ifdef ADD_A_RN
                     237     ;     add_a_rn();
                     238     ; #endif
                     239     ; #ifdef ADD_A_DI
                     240     ;     add_a_di();
                     241     ; #endif        
                     242     ; #ifdef ADD_A_RI
                     243     ;     add_a_ri();
                     244     ; #endif                
                     245     ; #ifdef ADD_A_DA
                     246     ;     add_a_da();
                     247     ; #endif
                     248     ; #ifdef ADDC_A_RN
                     249     ;     addc_a_rn();
                     250     ; #endif        
                     251     ; #ifdef ADDC_A_DI
                     252     ;     addc_a_di();
                     253     ; #endif                
                     254     ; #ifdef ADDC_A_RI
                     255     ;     addc_a_ri();
                     256     ; #endif
                     257     ; #ifdef ADDC_A_DA
                     258     ;     addc_a_da();
                     259     ; #endif
                     260     ; #ifdef SUBB_A_RN
                     261     ;     subb_a_rn();
                     262     ; #endif
                     263     ; #ifdef SUBB_A_DI
                     264     ;     subb_a_di();
                     265     ; #endif
                     266     ; #ifdef SUBB_A_RI
                     267     ;     subb_a_ri();
                     268     ; #endif
                     269     ; #ifdef SUBB_A_DA
                     270     ;     subb_a_da();
                     271     ; #endif
                     272     ; #ifdef INC_A
                     273     ;     inc_a();
                     274     ; #endif
                     275     ; #ifdef INC_RN
                     276     ;     inc_rn();
                     277     ; #endif
                     278     ; #ifdef INC_DI
                     279     ;     inc_di();
                     280     ; #endif
                     281     ; #ifdef INC_RI
                     282     ;     inc_ri();
                     283     ; #endif
                     284     ; #ifdef INC_DP
                     285     ;     inc_dp();
                     286     ; #endif
                     287     ; #ifdef DEC_A
                     288     ;     dec_a();
A51 MACRO ASSEMBLER  INSTRUCTION                                                          10/08/2013 10:14:03 PAGE     6

                     289                             ; SOURCE LINE # 64
0000 120000   F      290             LCALL   dec_a
                     291     ; #endif
                     292     ; #ifdef DEC_RN
                     293     ;     dec_rn();
                     294                             ; SOURCE LINE # 67
0003 120000   F      295             LCALL   dec_rn
                     296     ; #endif
                     297     ; #ifdef DEC_DI
                     298     ;     dec_di();
                     299                             ; SOURCE LINE # 70
0006 120000   F      300             LCALL   dec_di
                     301     ; #endif
                     302     ; #ifdef DEC_RI
                     303     ;     dec_ri();
                     304                             ; SOURCE LINE # 73
0009 020000   F      305             LJMP    dec_ri
                     306     ; END OF arithmetic
                     307     
                     308     ; #endif
                     309     ; }
                     310     ; 
                     311     ; 
                     312     ; void add_a_rn(void) {
                     313     
----                 314             RSEG  ?PR?add_a_rn?INSTRUCTION
0000                 315     add_a_rn:
                     316             USING   0
                     317                             ; SOURCE LINE # 78
                     318     ;       printf("ADD_A_RN\n");
                     319                             ; SOURCE LINE # 79
0000 7BFF            320             MOV     R3,#0FFH
0002 7A00     F      321             MOV     R2,#HIGH (?SC_0)
0004 7900     F      322             MOV     R1,#LOW (?SC_0)
0006 120000   F      323             LCALL   _printf
                     324     ;       #pragma ASM  
                     325     ;       push psw
0009 C0D0            326               push psw
                     327     ;       push acc
000B C0E0            328               push acc
                     329     ;   mov  psw,#0H        
000D 75D000          330               mov  psw,#0H  
                     331     ;   setb rs0     
0010 D2D3            332               setb rs0     
                     333     ;       setb rs1        
0012 D2D4            334               setb rs1      
                     335     ;   #pragma ENDASM 
                     336     ;       
                     337     ;       #pragma ASM
                     338     ;       mov acc,#01H
0014 75E001          339               mov acc,#01H
                     340     ;       mov R0,#0fH
0017 780F            341               mov R0,#0fH
                     342     ;       add A,R0
0019 28              343               add A,R0
                     344     ;   #pragma ENDASM      
                     345     ;       if (ACC!=0x10) test_status = 0;
                     346                             ; SOURCE LINE # 93
001A 6410            347             XRL     A,#010H
001C 6004            348             JZ      ?C0003
001E 78FF            349             MOV     R0,#0FFH
0020 E4              350             CLR     A
0021 F6              351             MOV     @R0,A
0022                 352     ?C0003:
                     353     ;       if (AC!=1) test_status = 0;
                     354                             ; SOURCE LINE # 94
A51 MACRO ASSEMBLER  INSTRUCTION                                                          10/08/2013 10:14:03 PAGE     7

0022 20D604          355             JB      AC,?C0004
0025 78FF            356             MOV     R0,#0FFH
0027 E4              357             CLR     A
0028 F6              358             MOV     @R0,A
0029                 359     ?C0004:
                     360     ;       if (OV!=0) test_status = 0;
                     361                             ; SOURCE LINE # 95
0029 30D204          362             JNB     OV,?C0005
002C 78FF            363             MOV     R0,#0FFH
002E E4              364             CLR     A
002F F6              365             MOV     @R0,A
0030                 366     ?C0005:
                     367     ;       if (CY!=0) test_status = 0;
                     368                             ; SOURCE LINE # 96
0030 30D704          369             JNB     CY,?C0006
0033 78FF            370             MOV     R0,#0FFH
0035 E4              371             CLR     A
0036 F6              372             MOV     @R0,A
0037                 373     ?C0006:
                     374     ;       AC = 0;
                     375                             ; SOURCE LINE # 97
0037 C2D6            376             CLR     AC
                     377     ;               
                     378     ;       #pragma ASM
                     379     ;       mov acc,#40H
0039 75E040          380               mov acc,#40H
                     381     ;       mov R1,#40H
003C 7940            382               mov R1,#40H
                     383     ;       add A,R1
003E 29              384               add A,R1
                     385     ;       #pragma ENDASM
                     386     ;       if (ACC!=0x80) test_status = 0;
                     387                             ; SOURCE LINE # 104
003F 6480            388             XRL     A,#080H
0041 6004            389             JZ      ?C0007
0043 78FF            390             MOV     R0,#0FFH
0045 E4              391             CLR     A
0046 F6              392             MOV     @R0,A
0047                 393     ?C0007:
                     394     ;       if (AC!=0) test_status = 0;
                     395                             ; SOURCE LINE # 105
0047 30D604          396             JNB     AC,?C0008
004A 78FF            397             MOV     R0,#0FFH
004C E4              398             CLR     A
004D F6              399             MOV     @R0,A
004E                 400     ?C0008:
                     401     ;       if (OV!=1) test_status = 0;
                     402                             ; SOURCE LINE # 106
004E 20D204          403             JB      OV,?C0009
0051 78FF            404             MOV     R0,#0FFH
0053 E4              405             CLR     A
0054 F6              406             MOV     @R0,A
0055                 407     ?C0009:
                     408     ;       if (CY!=0) test_status = 0;
                     409                             ; SOURCE LINE # 107
0055 30D704          410             JNB     CY,?C0010
0058 78FF            411             MOV     R0,#0FFH
005A E4              412             CLR     A
005B F6              413             MOV     @R0,A
005C                 414     ?C0010:
                     415     ;       OV = 0;
                     416                             ; SOURCE LINE # 108
005C C2D2            417             CLR     OV
                     418     ; 
                     419     ;       
                     420     ;       #pragma ASM
A51 MACRO ASSEMBLER  INSTRUCTION                                                          10/08/2013 10:14:03 PAGE     8

                     421     ;   mov acc,#80H
005E 75E080          422               mov acc,#80H
                     423     ;       mov R2,#81H
0061 7A81            424               mov R2,#81H
                     425     ;       add A,R2
0063 2A              426               add A,R2
                     427     ;   #pragma ENDASM
                     428     ;       if (ACC!=0x01) test_status = 0;
                     429                             ; SOURCE LINE # 116
0064 6401            430             XRL     A,#01H
0066 6004            431             JZ      ?C0011
0068 78FF            432             MOV     R0,#0FFH
006A E4              433             CLR     A
006B F6              434             MOV     @R0,A
006C                 435     ?C0011:
                     436     ;       if (AC!=0) test_status = 0;
                     437                             ; SOURCE LINE # 117
006C 30D604          438             JNB     AC,?C0012
006F 78FF            439             MOV     R0,#0FFH
0071 E4              440             CLR     A
0072 F6              441             MOV     @R0,A
0073                 442     ?C0012:
                     443     ;       if (OV!=1) test_status = 0;
                     444                             ; SOURCE LINE # 118
0073 20D204          445             JB      OV,?C0013
0076 78FF            446             MOV     R0,#0FFH
0078 E4              447             CLR     A
0079 F6              448             MOV     @R0,A
007A                 449     ?C0013:
                     450     ;       if (CY!=1) test_status = 0;
                     451                             ; SOURCE LINE # 119
007A 20D704          452             JB      CY,?C0014
007D 78FF            453             MOV     R0,#0FFH
007F E4              454             CLR     A
0080 F6              455             MOV     @R0,A
0081                 456     ?C0014:
                     457     ;       OV = 0;
                     458                             ; SOURCE LINE # 120
0081 C2D2            459             CLR     OV
                     460     ;       CY = 0;
                     461                             ; SOURCE LINE # 121
0083 C2D7            462             CLR     CY
                     463     ;       
                     464     ;       #pragma ASM
                     465     ;   mov acc,#0C0H
0085 75E0C0          466               mov acc,#0C0H
                     467     ;       mov R3,#0C2H
0088 7BC2            468               mov R3,#0C2H
                     469     ;       add A,R3
008A 2B              470               add A,R3
                     471     ;   #pragma ENDASM
                     472     ;       if (ACC!=0x82) test_status = 0;
                     473                             ; SOURCE LINE # 128
008B 6482            474             XRL     A,#082H
008D 6004            475             JZ      ?C0015
008F 78FF            476             MOV     R0,#0FFH
0091 E4              477             CLR     A
0092 F6              478             MOV     @R0,A
0093                 479     ?C0015:
                     480     ;       if (AC!=0) test_status = 0;
                     481                             ; SOURCE LINE # 129
0093 30D604          482             JNB     AC,?C0016
0096 78FF            483             MOV     R0,#0FFH
0098 E4              484             CLR     A
0099 F6              485             MOV     @R0,A
009A                 486     ?C0016:
A51 MACRO ASSEMBLER  INSTRUCTION                                                          10/08/2013 10:14:03 PAGE     9

                     487     ;       if (OV!=0) test_status = 0;
                     488                             ; SOURCE LINE # 130
009A 30D204          489             JNB     OV,?C0017
009D 78FF            490             MOV     R0,#0FFH
009F E4              491             CLR     A
00A0 F6              492             MOV     @R0,A
00A1                 493     ?C0017:
                     494     ;       if (CY!=1) test_status = 0;
                     495                             ; SOURCE LINE # 131
00A1 20D704          496             JB      CY,?C0018
00A4 78FF            497             MOV     R0,#0FFH
00A6 E4              498             CLR     A
00A7 F6              499             MOV     @R0,A
00A8                 500     ?C0018:
                     501     ;       CY = 0; 
                     502                             ; SOURCE LINE # 132
00A8 C2D7            503             CLR     CY
                     504     ;       
                     505     ;       #pragma ASM 
                     506     ;       pop acc
00AA D0E0            507               pop acc
                     508     ;   pop psw     
00AC D0D0            509               pop psw       
                     510     ;   #pragma ENDASM      
                     511     ; }
                     512                             ; SOURCE LINE # 138
00AE 22              513             RET     
                     514     ; END OF add_a_rn
                     515     
                     516     ; 
                     517     ; void add_a_di(void) {
                     518     
----                 519             RSEG  ?PR?add_a_di?INSTRUCTION
0000                 520     add_a_di:
                     521             USING   0
                     522                             ; SOURCE LINE # 140
                     523     ;       printf("ADD_A_DI\n");
                     524                             ; SOURCE LINE # 141
0000 7BFF            525             MOV     R3,#0FFH
0002 7A00     F      526             MOV     R2,#HIGH (?SC_10)
0004 7900     F      527             MOV     R1,#LOW (?SC_10)
0006 120000   F      528             LCALL   _printf
                     529     ;       #pragma ASM  
                     530     ;       push psw
0009 C0D0            531               push psw
                     532     ;       push acc
000B C0E0            533               push acc
                     534     ;   mov  psw,#0H        
000D 75D000          535               mov  psw,#0H  
                     536     ;   setb rs0     
0010 D2D3            537               setb rs0     
                     538     ;       setb rs1        
0012 D2D4            539               setb rs1      
                     540     ;   #pragma ENDASM 
                     541     ;       
                     542     ;       #pragma ASM
                     543     ;       mov acc,#01H
0014 75E001          544               mov acc,#01H
                     545     ;       mov R0,#0fH
0017 780F            546               mov R0,#0fH
                     547     ;       add A,0x18
0019 2518            548               add A,0x18
                     549     ;   #pragma ENDASM      
                     550     ;       if (ACC!=0x10) test_status = 0;
                     551                             ; SOURCE LINE # 155
001B 6410            552             XRL     A,#010H
A51 MACRO ASSEMBLER  INSTRUCTION                                                          10/08/2013 10:14:03 PAGE    10

001D 6004            553             JZ      ?C0020
001F 78FF            554             MOV     R0,#0FFH
0021 E4              555             CLR     A
0022 F6              556             MOV     @R0,A
0023                 557     ?C0020:
                     558     ;       if (AC!=1) test_status = 0;
                     559                             ; SOURCE LINE # 156
0023 20D604          560             JB      AC,?C0021
0026 78FF            561             MOV     R0,#0FFH
0028 E4              562             CLR     A
0029 F6              563             MOV     @R0,A
002A                 564     ?C0021:
                     565     ;       if (OV!=0) test_status = 0;
                     566                             ; SOURCE LINE # 157
002A 30D204          567             JNB     OV,?C0022
002D 78FF            568             MOV     R0,#0FFH
002F E4              569             CLR     A
0030 F6              570             MOV     @R0,A
0031                 571     ?C0022:
                     572     ;       if (CY!=0) test_status = 0;
                     573                             ; SOURCE LINE # 158
0031 30D704          574             JNB     CY,?C0023
0034 78FF            575             MOV     R0,#0FFH
0036 E4              576             CLR     A
0037 F6              577             MOV     @R0,A
0038                 578     ?C0023:
                     579     ;       AC = 0;
                     580                             ; SOURCE LINE # 159
0038 C2D6            581             CLR     AC
                     582     ;               
                     583     ;       #pragma ASM
                     584     ;       mov acc,#40H
003A 75E040          585               mov acc,#40H
                     586     ;       mov R1,#40H
003D 7940            587               mov R1,#40H
                     588     ;       add A,0x19
003F 2519            589               add A,0x19
                     590     ;       #pragma ENDASM
                     591     ;       if (ACC!=0x80) test_status = 0;
                     592                             ; SOURCE LINE # 166
0041 6480            593             XRL     A,#080H
0043 6004            594             JZ      ?C0024
0045 78FF            595             MOV     R0,#0FFH
0047 E4              596             CLR     A
0048 F6              597             MOV     @R0,A
0049                 598     ?C0024:
                     599     ;       if (AC!=0) test_status = 0;
                     600                             ; SOURCE LINE # 167
0049 30D604          601             JNB     AC,?C0025
004C 78FF            602             MOV     R0,#0FFH
004E E4              603             CLR     A
004F F6              604             MOV     @R0,A
0050                 605     ?C0025:
                     606     ;       if (OV!=1) test_status = 0;
                     607                             ; SOURCE LINE # 168
0050 20D204          608             JB      OV,?C0026
0053 78FF            609             MOV     R0,#0FFH
0055 E4              610             CLR     A
0056 F6              611             MOV     @R0,A
0057                 612     ?C0026:
                     613     ;       if (CY!=0) test_status = 0;
                     614                             ; SOURCE LINE # 169
0057 30D704          615             JNB     CY,?C0027
005A 78FF            616             MOV     R0,#0FFH
005C E4              617             CLR     A
005D F6              618             MOV     @R0,A
A51 MACRO ASSEMBLER  INSTRUCTION                                                          10/08/2013 10:14:03 PAGE    11

005E                 619     ?C0027:
                     620     ;       OV = 0;
                     621                             ; SOURCE LINE # 170
005E C2D2            622             CLR     OV
                     623     ; 
                     624     ;       
                     625     ;       #pragma ASM
                     626     ;   mov acc,#80H
0060 75E080          627               mov acc,#80H
                     628     ;       mov R2,#81H
0063 7A81            629               mov R2,#81H
                     630     ;       add A,0x1a
0065 251A            631               add A,0x1a
                     632     ;   #pragma ENDASM
                     633     ;       if (ACC!=0x01) test_status = 0;
                     634                             ; SOURCE LINE # 178
0067 6401            635             XRL     A,#01H
0069 6004            636             JZ      ?C0028
006B 78FF            637             MOV     R0,#0FFH
006D E4              638             CLR     A
006E F6              639             MOV     @R0,A
006F                 640     ?C0028:
                     641     ;       if (AC!=0) test_status = 0;
                     642                             ; SOURCE LINE # 179
006F 30D604          643             JNB     AC,?C0029
0072 78FF            644             MOV     R0,#0FFH
0074 E4              645             CLR     A
0075 F6              646             MOV     @R0,A
0076                 647     ?C0029:
                     648     ;       if (OV!=1) test_status = 0;
                     649                             ; SOURCE LINE # 180
0076 20D204          650             JB      OV,?C0030
0079 78FF            651             MOV     R0,#0FFH
007B E4              652             CLR     A
007C F6              653             MOV     @R0,A
007D                 654     ?C0030:
                     655     ;       if (CY!=1) test_status = 0;
                     656                             ; SOURCE LINE # 181
007D 20D704          657             JB      CY,?C0031
0080 78FF            658             MOV     R0,#0FFH
0082 E4              659             CLR     A
0083 F6              660             MOV     @R0,A
0084                 661     ?C0031:
                     662     ;       OV = 0;
                     663                             ; SOURCE LINE # 182
0084 C2D2            664             CLR     OV
                     665     ;       CY = 0;
                     666                             ; SOURCE LINE # 183
0086 C2D7            667             CLR     CY
                     668     ;       
                     669     ;       #pragma ASM
                     670     ;   mov acc,#0C0H
0088 75E0C0          671               mov acc,#0C0H
                     672     ;       mov R3,#0C2H
008B 7BC2            673               mov R3,#0C2H
                     674     ;       add A,0x1b
008D 251B            675               add A,0x1b
                     676     ;   #pragma ENDASM
                     677     ;       if (ACC!=0x82) test_status = 0;
                     678                             ; SOURCE LINE # 190
008F 6482            679             XRL     A,#082H
0091 6004            680             JZ      ?C0032
0093 78FF            681             MOV     R0,#0FFH
0095 E4              682             CLR     A
0096 F6              683             MOV     @R0,A
0097                 684     ?C0032:
A51 MACRO ASSEMBLER  INSTRUCTION                                                          10/08/2013 10:14:03 PAGE    12

                     685     ;       if (AC!=0) test_status = 0;
                     686                             ; SOURCE LINE # 191
0097 30D604          687             JNB     AC,?C0033
009A 78FF            688             MOV     R0,#0FFH
009C E4              689             CLR     A
009D F6              690             MOV     @R0,A
009E                 691     ?C0033:
                     692     ;       if (OV!=0) test_status = 0;
                     693                             ; SOURCE LINE # 192
009E 30D204          694             JNB     OV,?C0034
00A1 78FF            695             MOV     R0,#0FFH
00A3 E4              696             CLR     A
00A4 F6              697             MOV     @R0,A
00A5                 698     ?C0034:
                     699     ;       if (CY!=1) test_status = 0;
                     700                             ; SOURCE LINE # 193
00A5 20D704          701             JB      CY,?C0035
00A8 78FF            702             MOV     R0,#0FFH
00AA E4              703             CLR     A
00AB F6              704             MOV     @R0,A
00AC                 705     ?C0035:
                     706     ;       CY = 0; 
                     707                             ; SOURCE LINE # 194
00AC C2D7            708             CLR     CY
                     709     ;       
                     710     ;       #pragma ASM 
                     711     ;       pop acc
00AE D0E0            712               pop acc
                     713     ;   pop psw     
00B0 D0D0            714               pop psw       
                     715     ;   #pragma ENDASM      
                     716     ; }
                     717                             ; SOURCE LINE # 200
00B2 22              718             RET     
                     719     ; END OF add_a_di
                     720     
                     721     ; 
                     722     ; void add_a_ri(void) {
                     723     
----                 724             RSEG  ?PR?add_a_ri?INSTRUCTION
0000                 725     add_a_ri:
                     726             USING   0
                     727                             ; SOURCE LINE # 202
                     728     ;       printf("ADD_A_RI\n");
                     729                             ; SOURCE LINE # 203
0000 7BFF            730             MOV     R3,#0FFH
0002 7A00     F      731             MOV     R2,#HIGH (?SC_20)
0004 7900     F      732             MOV     R1,#LOW (?SC_20)
0006 120000   F      733             LCALL   _printf
                     734     ;       #pragma ASM  
                     735     ;       push psw
0009 C0D0            736               push psw
                     737     ;       push acc
000B C0E0            738               push acc
                     739     ;   mov  psw,#0H        
000D 75D000          740               mov  psw,#0H  
                     741     ;   setb rs0     
0010 D2D3            742               setb rs0     
                     743     ;       setb rs1        
0012 D2D4            744               setb rs1      
                     745     ;   #pragma ENDASM 
                     746     ;       
                     747     ;       #pragma ASM
                     748     ;       mov acc,#01H
0014 75E001          749               mov acc,#01H
                     750     ;       mov R2,#0fH
A51 MACRO ASSEMBLER  INSTRUCTION                                                          10/08/2013 10:14:03 PAGE    13

0017 7A0F            751               mov R2,#0fH
                     752     ;       mov R0,#1aH
0019 781A            753               mov R0,#1aH
                     754     ;       add A,@R0
001B 26              755               add A,@R0
                     756     ;   #pragma ENDASM      
                     757     ;       if (ACC!=0x10) test_status = 0;
                     758                             ; SOURCE LINE # 218
001C 6410            759             XRL     A,#010H
001E 6004            760             JZ      ?C0037
0020 78FF            761             MOV     R0,#0FFH
0022 E4              762             CLR     A
0023 F6              763             MOV     @R0,A
0024                 764     ?C0037:
                     765     ;       if (AC!=1) test_status = 0;
                     766                             ; SOURCE LINE # 219
0024 20D604          767             JB      AC,?C0038
0027 78FF            768             MOV     R0,#0FFH
0029 E4              769             CLR     A
002A F6              770             MOV     @R0,A
002B                 771     ?C0038:
                     772     ;       if (OV!=0) test_status = 0;
                     773                             ; SOURCE LINE # 220
002B 30D204          774             JNB     OV,?C0039
002E 78FF            775             MOV     R0,#0FFH
0030 E4              776             CLR     A
0031 F6              777             MOV     @R0,A
0032                 778     ?C0039:
                     779     ;       if (CY!=0) test_status = 0;
                     780                             ; SOURCE LINE # 221
0032 30D704          781             JNB     CY,?C0040
0035 78FF            782             MOV     R0,#0FFH
0037 E4              783             CLR     A
0038 F6              784             MOV     @R0,A
0039                 785     ?C0040:
                     786     ;       AC = 0;
                     787                             ; SOURCE LINE # 222
0039 C2D6            788             CLR     AC
                     789     ;               
                     790     ;       #pragma ASM
                     791     ;       mov acc,#40H
003B 75E040          792               mov acc,#40H
                     793     ;       mov R2,#40H
003E 7A40            794               mov R2,#40H
                     795     ;       mov R0,#1aH
0040 781A            796               mov R0,#1aH
                     797     ;       add A,@R0
0042 26              798               add A,@R0
                     799     ;       #pragma ENDASM
                     800     ;       if (ACC!=0x80) test_status = 0;
                     801                             ; SOURCE LINE # 230
0043 6480            802             XRL     A,#080H
0045 6004            803             JZ      ?C0041
0047 78FF            804             MOV     R0,#0FFH
0049 E4              805             CLR     A
004A F6              806             MOV     @R0,A
004B                 807     ?C0041:
                     808     ;       if (AC!=0) test_status = 0;
                     809                             ; SOURCE LINE # 231
004B 30D604          810             JNB     AC,?C0042
004E 78FF            811             MOV     R0,#0FFH
0050 E4              812             CLR     A
0051 F6              813             MOV     @R0,A
0052                 814     ?C0042:
                     815     ;       if (OV!=1) test_status = 0;
                     816                             ; SOURCE LINE # 232
A51 MACRO ASSEMBLER  INSTRUCTION                                                          10/08/2013 10:14:03 PAGE    14

0052 20D204          817             JB      OV,?C0043
0055 78FF            818             MOV     R0,#0FFH
0057 E4              819             CLR     A
0058 F6              820             MOV     @R0,A
0059                 821     ?C0043:
                     822     ;       if (CY!=0) test_status = 0;
                     823                             ; SOURCE LINE # 233
0059 30D704          824             JNB     CY,?C0044
005C 78FF            825             MOV     R0,#0FFH
005E E4              826             CLR     A
005F F6              827             MOV     @R0,A
0060                 828     ?C0044:
                     829     ;       OV = 0;
                     830                             ; SOURCE LINE # 234
0060 C2D2            831             CLR     OV
                     832     ; 
                     833     ;       
                     834     ;       #pragma ASM
                     835     ;   mov acc,#80H
0062 75E080          836               mov acc,#80H
                     837     ;       mov R3,#81H
0065 7B81            838               mov R3,#81H
                     839     ;       mov R1,#1bH
0067 791B            840               mov R1,#1bH
                     841     ;       add A,@R1
0069 27              842               add A,@R1
                     843     ;   #pragma ENDASM
                     844     ;       if (ACC!=0x01) test_status = 0;
                     845                             ; SOURCE LINE # 243
006A 6401            846             XRL     A,#01H
006C 6004            847             JZ      ?C0045
006E 78FF            848             MOV     R0,#0FFH
0070 E4              849             CLR     A
0071 F6              850             MOV     @R0,A
0072                 851     ?C0045:
                     852     ;       if (AC!=0) test_status = 0;
                     853                             ; SOURCE LINE # 244
0072 30D604          854             JNB     AC,?C0046
0075 78FF            855             MOV     R0,#0FFH
0077 E4              856             CLR     A
0078 F6              857             MOV     @R0,A
0079                 858     ?C0046:
                     859     ;       if (OV!=1) test_status = 0;
                     860                             ; SOURCE LINE # 245
0079 20D204          861             JB      OV,?C0047
007C 78FF            862             MOV     R0,#0FFH
007E E4              863             CLR     A
007F F6              864             MOV     @R0,A
0080                 865     ?C0047:
                     866     ;       if (CY!=1) test_status = 0;
                     867                             ; SOURCE LINE # 246
0080 20D704          868             JB      CY,?C0048
0083 78FF            869             MOV     R0,#0FFH
0085 E4              870             CLR     A
0086 F6              871             MOV     @R0,A
0087                 872     ?C0048:
                     873     ;       OV = 0;
                     874                             ; SOURCE LINE # 247
0087 C2D2            875             CLR     OV
                     876     ;       CY = 0;
                     877                             ; SOURCE LINE # 248
0089 C2D7            878             CLR     CY
                     879     ;       
                     880     ;       #pragma ASM
                     881     ;   mov acc,#0C0H
008B 75E0C0          882               mov acc,#0C0H
A51 MACRO ASSEMBLER  INSTRUCTION                                                          10/08/2013 10:14:03 PAGE    15

                     883     ;       mov R3,#0C2H
008E 7BC2            884               mov R3,#0C2H
                     885     ;       mov R1,#1bH
0090 791B            886               mov R1,#1bH
                     887     ;       add A,@R1
0092 27              888               add A,@R1
                     889     ;   #pragma ENDASM
                     890     ;       if (ACC!=0x82) test_status = 0;
                     891                             ; SOURCE LINE # 256
0093 6482            892             XRL     A,#082H
0095 6004            893             JZ      ?C0049
0097 78FF            894             MOV     R0,#0FFH
0099 E4              895             CLR     A
009A F6              896             MOV     @R0,A
009B                 897     ?C0049:
                     898     ;       if (AC!=0) test_status = 0;
                     899                             ; SOURCE LINE # 257
009B 30D604          900             JNB     AC,?C0050
009E 78FF            901             MOV     R0,#0FFH
00A0 E4              902             CLR     A
00A1 F6              903             MOV     @R0,A
00A2                 904     ?C0050:
                     905     ;       if (OV!=0) test_status = 0;
                     906                             ; SOURCE LINE # 258
00A2 30D204          907             JNB     OV,?C0051
00A5 78FF            908             MOV     R0,#0FFH
00A7 E4              909             CLR     A
00A8 F6              910             MOV     @R0,A
00A9                 911     ?C0051:
                     912     ;       if (CY!=1) test_status = 0;
                     913                             ; SOURCE LINE # 259
00A9 20D704          914             JB      CY,?C0052
00AC 78FF            915             MOV     R0,#0FFH
00AE E4              916             CLR     A
00AF F6              917             MOV     @R0,A
00B0                 918     ?C0052:
                     919     ;       CY = 0; 
                     920                             ; SOURCE LINE # 260
00B0 C2D7            921             CLR     CY
                     922     ;       
                     923     ;       #pragma ASM 
                     924     ;       pop acc
00B2 D0E0            925               pop acc
                     926     ;   pop psw     
00B4 D0D0            927               pop psw       
                     928     ;   #pragma ENDASM      
                     929     ; }
                     930                             ; SOURCE LINE # 266
00B6 22              931             RET     
                     932     ; END OF add_a_ri
                     933     
                     934     ; 
                     935     ; void add_a_da(void) {
                     936     
----                 937             RSEG  ?PR?add_a_da?INSTRUCTION
0000                 938     add_a_da:
                     939             USING   0
                     940                             ; SOURCE LINE # 268
                     941     ;       printf("ADD_A_DA\n");
                     942                             ; SOURCE LINE # 269
0000 7BFF            943             MOV     R3,#0FFH
0002 7A00     F      944             MOV     R2,#HIGH (?SC_30)
0004 7900     F      945             MOV     R1,#LOW (?SC_30)
0006 120000   F      946             LCALL   _printf
                     947     ;       #pragma ASM  
                     948     ;       push psw
A51 MACRO ASSEMBLER  INSTRUCTION                                                          10/08/2013 10:14:03 PAGE    16

0009 C0D0            949               push psw
                     950     ;       push acc
000B C0E0            951               push acc
                     952     ;   mov  psw,#0H        
000D 75D000          953               mov  psw,#0H  
                     954     ;   setb rs0     
0010 D2D3            955               setb rs0     
                     956     ;       setb rs1        
0012 D2D4            957               setb rs1      
                     958     ;   #pragma ENDASM 
                     959     ;       
                     960     ;       #pragma ASM
                     961     ;       mov acc,#01H
0014 75E001          962               mov acc,#01H
                     963     ;       add A,#0fH
0017 240F            964               add A,#0fH
                     965     ;   #pragma ENDASM      
                     966     ;       if (ACC!=0x10) test_status = 0;
                     967                             ; SOURCE LINE # 282
0019 6410            968             XRL     A,#010H
001B 6004            969             JZ      ?C0054
001D 78FF            970             MOV     R0,#0FFH
001F E4              971             CLR     A
0020 F6              972             MOV     @R0,A
0021                 973     ?C0054:
                     974     ;       if (AC!=1) test_status = 0;
                     975                             ; SOURCE LINE # 283
0021 20D604          976             JB      AC,?C0055
0024 78FF            977             MOV     R0,#0FFH
0026 E4              978             CLR     A
0027 F6              979             MOV     @R0,A
0028                 980     ?C0055:
                     981     ;       if (OV!=0) test_status = 0;
                     982                             ; SOURCE LINE # 284
0028 30D204          983             JNB     OV,?C0056
002B 78FF            984             MOV     R0,#0FFH
002D E4              985             CLR     A
002E F6              986             MOV     @R0,A
002F                 987     ?C0056:
                     988     ;       if (CY!=0) test_status = 0;
                     989                             ; SOURCE LINE # 285
002F 30D704          990             JNB     CY,?C0057
0032 78FF            991             MOV     R0,#0FFH
0034 E4              992             CLR     A
0035 F6              993             MOV     @R0,A
0036                 994     ?C0057:
                     995     ;       AC = 0;
                     996                             ; SOURCE LINE # 286
0036 C2D6            997             CLR     AC
                     998     ;               
                     999     ;       #pragma ASM
                    1000     ;       mov acc,#40H
0038 75E040         1001               mov acc,#40H
                    1002     ;       add A,#40H
003B 2440           1003               add A,#40H
                    1004     ;       #pragma ENDASM
                    1005     ;       if (ACC!=0x80) test_status = 0;
                    1006                             ; SOURCE LINE # 292
003D 6480           1007             XRL     A,#080H
003F 6004           1008             JZ      ?C0058
0041 78FF           1009             MOV     R0,#0FFH
0043 E4             1010             CLR     A
0044 F6             1011             MOV     @R0,A
0045                1012     ?C0058:
                    1013     ;       if (AC!=0) test_status = 0;
                    1014                             ; SOURCE LINE # 293
A51 MACRO ASSEMBLER  INSTRUCTION                                                          10/08/2013 10:14:03 PAGE    17

0045 30D604         1015             JNB     AC,?C0059
0048 78FF           1016             MOV     R0,#0FFH
004A E4             1017             CLR     A
004B F6             1018             MOV     @R0,A
004C                1019     ?C0059:
                    1020     ;       if (OV!=1) test_status = 0;
                    1021                             ; SOURCE LINE # 294
004C 20D204         1022             JB      OV,?C0060
004F 78FF           1023             MOV     R0,#0FFH
0051 E4             1024             CLR     A
0052 F6             1025             MOV     @R0,A
0053                1026     ?C0060:
                    1027     ;       if (CY!=0) test_status = 0;
                    1028                             ; SOURCE LINE # 295
0053 30D704         1029             JNB     CY,?C0061
0056 78FF           1030             MOV     R0,#0FFH
0058 E4             1031             CLR     A
0059 F6             1032             MOV     @R0,A
005A                1033     ?C0061:
                    1034     ;       OV = 0;
                    1035                             ; SOURCE LINE # 296
005A C2D2           1036             CLR     OV
                    1037     ; 
                    1038     ;       
                    1039     ;       #pragma ASM
                    1040     ;   mov acc,#80H
005C 75E080         1041               mov acc,#80H
                    1042     ;       add A,#81H
005F 2481           1043               add A,#81H
                    1044     ;   #pragma ENDASM
                    1045     ;       if (ACC!=0x01) test_status = 0;
                    1046                             ; SOURCE LINE # 303
0061 6401           1047             XRL     A,#01H
0063 6004           1048             JZ      ?C0062
0065 78FF           1049             MOV     R0,#0FFH
0067 E4             1050             CLR     A
0068 F6             1051             MOV     @R0,A
0069                1052     ?C0062:
                    1053     ;       if (AC!=0) test_status = 0;
                    1054                             ; SOURCE LINE # 304
0069 30D604         1055             JNB     AC,?C0063
006C 78FF           1056             MOV     R0,#0FFH
006E E4             1057             CLR     A
006F F6             1058             MOV     @R0,A
0070                1059     ?C0063:
                    1060     ;       if (OV!=1) test_status = 0;
                    1061                             ; SOURCE LINE # 305
0070 20D204         1062             JB      OV,?C0064
0073 78FF           1063             MOV     R0,#0FFH
0075 E4             1064             CLR     A
0076 F6             1065             MOV     @R0,A
0077                1066     ?C0064:
                    1067     ;       if (CY!=1) test_status = 0;
                    1068                             ; SOURCE LINE # 306
0077 20D704         1069             JB      CY,?C0065
007A 78FF           1070             MOV     R0,#0FFH
007C E4             1071             CLR     A
007D F6             1072             MOV     @R0,A
007E                1073     ?C0065:
                    1074     ;       OV = 0;
                    1075                             ; SOURCE LINE # 307
007E C2D2           1076             CLR     OV
                    1077     ;       CY = 0;
                    1078                             ; SOURCE LINE # 308
0080 C2D7           1079             CLR     CY
                    1080     ;       
A51 MACRO ASSEMBLER  INSTRUCTION                                                          10/08/2013 10:14:03 PAGE    18

                    1081     ;       #pragma ASM
                    1082     ;   mov acc,#0C0H
0082 75E0C0         1083               mov acc,#0C0H
                    1084     ;       add A,#0C2H
0085 24C2           1085               add A,#0C2H
                    1086     ;   #pragma ENDASM
                    1087     ;       if (ACC!=0x82) test_status = 0;
                    1088                             ; SOURCE LINE # 314
0087 6482           1089             XRL     A,#082H
0089 6004           1090             JZ      ?C0066
008B 78FF           1091             MOV     R0,#0FFH
008D E4             1092             CLR     A
008E F6             1093             MOV     @R0,A
008F                1094     ?C0066:
                    1095     ;       if (AC!=0) test_status = 0;
                    1096                             ; SOURCE LINE # 315
008F 30D604         1097             JNB     AC,?C0067
0092 78FF           1098             MOV     R0,#0FFH
0094 E4             1099             CLR     A
0095 F6             1100             MOV     @R0,A
0096                1101     ?C0067:
                    1102     ;       if (OV!=0) test_status = 0;
                    1103                             ; SOURCE LINE # 316
0096 30D204         1104             JNB     OV,?C0068
0099 78FF           1105             MOV     R0,#0FFH
009B E4             1106             CLR     A
009C F6             1107             MOV     @R0,A
009D                1108     ?C0068:
                    1109     ;       if (CY!=1) test_status = 0;
                    1110                             ; SOURCE LINE # 317
009D 20D704         1111             JB      CY,?C0069
00A0 78FF           1112             MOV     R0,#0FFH
00A2 E4             1113             CLR     A
00A3 F6             1114             MOV     @R0,A
00A4                1115     ?C0069:
                    1116     ;       CY = 0; 
                    1117                             ; SOURCE LINE # 318
00A4 C2D7           1118             CLR     CY
                    1119     ;       
                    1120     ;       #pragma ASM 
                    1121     ;       pop acc
00A6 D0E0           1122               pop acc
                    1123     ;   pop psw     
00A8 D0D0           1124               pop psw       
                    1125     ;   #pragma ENDASM      
                    1126     ; }
                    1127                             ; SOURCE LINE # 324
00AA 22             1128             RET     
                    1129     ; END OF add_a_da
                    1130     
                    1131     ; 
                    1132     ; void addc_a_rn(void) {
                    1133     
----                1134             RSEG  ?PR?addc_a_rn?INSTRUCTION
0000                1135     addc_a_rn:
                    1136             USING   0
                    1137                             ; SOURCE LINE # 326
                    1138     ;       printf("ADDC_A_RN\n");
                    1139                             ; SOURCE LINE # 327
0000 7BFF           1140             MOV     R3,#0FFH
0002 7A00     F     1141             MOV     R2,#HIGH (?SC_40)
0004 7900     F     1142             MOV     R1,#LOW (?SC_40)
0006 120000   F     1143             LCALL   _printf
                    1144     ;       #pragma ASM  
                    1145     ;       push psw
0009 C0D0           1146               push psw
A51 MACRO ASSEMBLER  INSTRUCTION                                                          10/08/2013 10:14:03 PAGE    19

                    1147     ;       push acc
000B C0E0           1148               push acc
                    1149     ;   mov  psw,#0H        
000D 75D000         1150               mov  psw,#0H  
                    1151     ;   setb rs0     
0010 D2D3           1152               setb rs0     
                    1153     ;       setb rs1        
0012 D2D4           1154               setb rs1      
                    1155     ;   #pragma ENDASM 
                    1156     ;       
                    1157     ;       #pragma ASM
                    1158     ;       mov acc,#01H
0014 75E001         1159               mov acc,#01H
                    1160     ;       mov R0,#0fH
0017 780F           1161               mov R0,#0fH
                    1162     ;       setb C
0019 D3             1163               setb C
                    1164     ;       addc A,R0
001A 38             1165               addc A,R0
                    1166     ;   #pragma ENDASM      
                    1167     ;       if (ACC!=0x11) test_status = 0;
                    1168                             ; SOURCE LINE # 342
001B 6411           1169             XRL     A,#011H
001D 6004           1170             JZ      ?C0071
001F 78FF           1171             MOV     R0,#0FFH
0021 E4             1172             CLR     A
0022 F6             1173             MOV     @R0,A
0023                1174     ?C0071:
                    1175     ;       if (AC!=1) test_status = 0;
                    1176                             ; SOURCE LINE # 343
0023 20D604         1177             JB      AC,?C0072
0026 78FF           1178             MOV     R0,#0FFH
0028 E4             1179             CLR     A
0029 F6             1180             MOV     @R0,A
002A                1181     ?C0072:
                    1182     ;       if (OV!=0) test_status = 0;
                    1183                             ; SOURCE LINE # 344
002A 30D204         1184             JNB     OV,?C0073
002D 78FF           1185             MOV     R0,#0FFH
002F E4             1186             CLR     A
0030 F6             1187             MOV     @R0,A
0031                1188     ?C0073:
                    1189     ;       if (CY!=0) test_status = 0;
                    1190                             ; SOURCE LINE # 345
0031 30D704         1191             JNB     CY,?C0074
0034 78FF           1192             MOV     R0,#0FFH
0036 E4             1193             CLR     A
0037 F6             1194             MOV     @R0,A
0038                1195     ?C0074:
                    1196     ;       AC = 0;
                    1197                             ; SOURCE LINE # 346
0038 C2D6           1198             CLR     AC
                    1199     ;               
                    1200     ;       #pragma ASM
                    1201     ;       mov acc,#40H
003A 75E040         1202               mov acc,#40H
                    1203     ;       mov R1,#40H
003D 7940           1204               mov R1,#40H
                    1205     ;       setb C
003F D3             1206               setb C
                    1207     ;       addc A,R1
0040 39             1208               addc A,R1
                    1209     ;       #pragma ENDASM
                    1210     ;       if (ACC!=0x81) test_status = 0;
                    1211                             ; SOURCE LINE # 354
0041 6481           1212             XRL     A,#081H
A51 MACRO ASSEMBLER  INSTRUCTION                                                          10/08/2013 10:14:03 PAGE    20

0043 6004           1213             JZ      ?C0075
0045 78FF           1214             MOV     R0,#0FFH
0047 E4             1215             CLR     A
0048 F6             1216             MOV     @R0,A
0049                1217     ?C0075:
                    1218     ;       if (AC!=0) test_status = 0;
                    1219                             ; SOURCE LINE # 355
0049 30D604         1220             JNB     AC,?C0076
004C 78FF           1221             MOV     R0,#0FFH
004E E4             1222             CLR     A
004F F6             1223             MOV     @R0,A
0050                1224     ?C0076:
                    1225     ;       if (OV!=1) test_status = 0;
                    1226                             ; SOURCE LINE # 356
0050 20D204         1227             JB      OV,?C0077
0053 78FF           1228             MOV     R0,#0FFH
0055 E4             1229             CLR     A
0056 F6             1230             MOV     @R0,A
0057                1231     ?C0077:
                    1232     ;       if (CY!=0) test_status = 0;
                    1233                             ; SOURCE LINE # 357
0057 30D704         1234             JNB     CY,?C0078
005A 78FF           1235             MOV     R0,#0FFH
005C E4             1236             CLR     A
005D F6             1237             MOV     @R0,A
005E                1238     ?C0078:
                    1239     ;       OV = 0;
                    1240                             ; SOURCE LINE # 358
005E C2D2           1241             CLR     OV
                    1242     ; 
                    1243     ;       
                    1244     ;       #pragma ASM
                    1245     ;   mov acc,#80H
0060 75E080         1246               mov acc,#80H
                    1247     ;       mov R2,#81H
0063 7A81           1248               mov R2,#81H
                    1249     ;       setb C
0065 D3             1250               setb C
                    1251     ;       addc A,R2
0066 3A             1252               addc A,R2
                    1253     ;   #pragma ENDASM
                    1254     ;       if (ACC!=0x02) test_status = 0;
                    1255                             ; SOURCE LINE # 367
0067 6402           1256             XRL     A,#02H
0069 6004           1257             JZ      ?C0079
006B 78FF           1258             MOV     R0,#0FFH
006D E4             1259             CLR     A
006E F6             1260             MOV     @R0,A
006F                1261     ?C0079:
                    1262     ;       if (AC!=0) test_status = 0;
                    1263                             ; SOURCE LINE # 368
006F 30D604         1264             JNB     AC,?C0080
0072 78FF           1265             MOV     R0,#0FFH
0074 E4             1266             CLR     A
0075 F6             1267             MOV     @R0,A
0076                1268     ?C0080:
                    1269     ;       if (OV!=1) test_status = 0;
                    1270                             ; SOURCE LINE # 369
0076 20D204         1271             JB      OV,?C0081
0079 78FF           1272             MOV     R0,#0FFH
007B E4             1273             CLR     A
007C F6             1274             MOV     @R0,A
007D                1275     ?C0081:
                    1276     ;       if (CY!=1) test_status = 0;
                    1277                             ; SOURCE LINE # 370
007D 20D704         1278             JB      CY,?C0082
A51 MACRO ASSEMBLER  INSTRUCTION                                                          10/08/2013 10:14:03 PAGE    21

0080 78FF           1279             MOV     R0,#0FFH
0082 E4             1280             CLR     A
0083 F6             1281             MOV     @R0,A
0084                1282     ?C0082:
                    1283     ;       OV = 0;
                    1284                             ; SOURCE LINE # 371
0084 C2D2           1285             CLR     OV
                    1286     ;       CY = 0;
                    1287                             ; SOURCE LINE # 372
0086 C2D7           1288             CLR     CY
                    1289     ;       
                    1290     ;       #pragma ASM
                    1291     ;   mov acc,#0C0H
0088 75E0C0         1292               mov acc,#0C0H
                    1293     ;       mov R3,#0C2H
008B 7BC2           1294               mov R3,#0C2H
                    1295     ;       setb C
008D D3             1296               setb C
                    1297     ;       addc A,R3
008E 3B             1298               addc A,R3
                    1299     ;   #pragma ENDASM
                    1300     ;       if (ACC!=0x83) test_status = 0;
                    1301                             ; SOURCE LINE # 380
008F 6483           1302             XRL     A,#083H
0091 6004           1303             JZ      ?C0083
0093 78FF           1304             MOV     R0,#0FFH
0095 E4             1305             CLR     A
0096 F6             1306             MOV     @R0,A
0097                1307     ?C0083:
                    1308     ;       if (AC!=0) test_status = 0;
                    1309                             ; SOURCE LINE # 381
0097 30D604         1310             JNB     AC,?C0084
009A 78FF           1311             MOV     R0,#0FFH
009C E4             1312             CLR     A
009D F6             1313             MOV     @R0,A
009E                1314     ?C0084:
                    1315     ;       if (OV!=0) test_status = 0;
                    1316                             ; SOURCE LINE # 382
009E 30D204         1317             JNB     OV,?C0085
00A1 78FF           1318             MOV     R0,#0FFH
00A3 E4             1319             CLR     A
00A4 F6             1320             MOV     @R0,A
00A5                1321     ?C0085:
                    1322     ;       if (CY!=1) test_status = 0;
                    1323                             ; SOURCE LINE # 383
00A5 20D704         1324             JB      CY,?C0086
00A8 78FF           1325             MOV     R0,#0FFH
00AA E4             1326             CLR     A
00AB F6             1327             MOV     @R0,A
00AC                1328     ?C0086:
                    1329     ;       CY = 0; 
                    1330                             ; SOURCE LINE # 384
00AC C2D7           1331             CLR     CY
                    1332     ;       
                    1333     ;       #pragma ASM 
                    1334     ;       pop acc
00AE D0E0           1335               pop acc
                    1336     ;   pop psw     
00B0 D0D0           1337               pop psw       
                    1338     ;   #pragma ENDASM      
                    1339     ; }
                    1340                             ; SOURCE LINE # 390
00B2 22             1341             RET     
                    1342     ; END OF addc_a_rn
                    1343     
                    1344     ; 
A51 MACRO ASSEMBLER  INSTRUCTION                                                          10/08/2013 10:14:03 PAGE    22

                    1345     ; void addc_a_di(void) {
                    1346     
----                1347             RSEG  ?PR?addc_a_di?INSTRUCTION
0000                1348     addc_a_di:
                    1349             USING   0
                    1350                             ; SOURCE LINE # 392
                    1351     ;       printf("ADDC_A_DI\n");
                    1352                             ; SOURCE LINE # 393
0000 7BFF           1353             MOV     R3,#0FFH
0002 7A00     F     1354             MOV     R2,#HIGH (?SC_51)
0004 7900     F     1355             MOV     R1,#LOW (?SC_51)
0006 120000   F     1356             LCALL   _printf
                    1357     ;       #pragma ASM  
                    1358     ;       push psw
0009 C0D0           1359               push psw
                    1360     ;       push acc
000B C0E0           1361               push acc
                    1362     ;   mov  psw,#0H        
000D 75D000         1363               mov  psw,#0H  
                    1364     ;   setb rs0     
0010 D2D3           1365               setb rs0     
                    1366     ;       setb rs1        
0012 D2D4           1367               setb rs1      
                    1368     ;   #pragma ENDASM 
                    1369     ;       
                    1370     ;       #pragma ASM
                    1371     ;       mov acc,#01H
0014 75E001         1372               mov acc,#01H
                    1373     ;       mov R0,#0fH
0017 780F           1374               mov R0,#0fH
                    1375     ;       setb C
0019 D3             1376               setb C
                    1377     ;       addc A,0x18
001A 3518           1378               addc A,0x18
                    1379     ;   #pragma ENDASM      
                    1380     ;       if (ACC!=0x11) test_status = 0;
                    1381                             ; SOURCE LINE # 408
001C 6411           1382             XRL     A,#011H
001E 6004           1383             JZ      ?C0088
0020 78FF           1384             MOV     R0,#0FFH
0022 E4             1385             CLR     A
0023 F6             1386             MOV     @R0,A
0024                1387     ?C0088:
                    1388     ;       if (AC!=1) test_status = 0;
                    1389                             ; SOURCE LINE # 409
0024 20D604         1390             JB      AC,?C0089
0027 78FF           1391             MOV     R0,#0FFH
0029 E4             1392             CLR     A
002A F6             1393             MOV     @R0,A
002B                1394     ?C0089:
                    1395     ;       if (OV!=0) test_status = 0;
                    1396                             ; SOURCE LINE # 410
002B 30D204         1397             JNB     OV,?C0090
002E 78FF           1398             MOV     R0,#0FFH
0030 E4             1399             CLR     A
0031 F6             1400             MOV     @R0,A
0032                1401     ?C0090:
                    1402     ;       if (CY!=0) test_status = 0;
                    1403                             ; SOURCE LINE # 411
0032 30D704         1404             JNB     CY,?C0091
0035 78FF           1405             MOV     R0,#0FFH
0037 E4             1406             CLR     A
0038 F6             1407             MOV     @R0,A
0039                1408     ?C0091:
                    1409     ;       AC = 0;
                    1410                             ; SOURCE LINE # 412
A51 MACRO ASSEMBLER  INSTRUCTION                                                          10/08/2013 10:14:03 PAGE    23

0039 C2D6           1411             CLR     AC
                    1412     ;               
                    1413     ;       #pragma ASM
                    1414     ;       mov acc,#40H
003B 75E040         1415               mov acc,#40H
                    1416     ;       mov R1,#40H
003E 7940           1417               mov R1,#40H
                    1418     ;       setb C
0040 D3             1419               setb C
                    1420     ;       addc A,0x19
0041 3519           1421               addc A,0x19
                    1422     ;       #pragma ENDASM
                    1423     ;       if (ACC!=0x81) test_status = 0;
                    1424                             ; SOURCE LINE # 420
0043 6481           1425             XRL     A,#081H
0045 6004           1426             JZ      ?C0092
0047 78FF           1427             MOV     R0,#0FFH
0049 E4             1428             CLR     A
004A F6             1429             MOV     @R0,A
004B                1430     ?C0092:
                    1431     ;       if (AC!=0) test_status = 0;
                    1432                             ; SOURCE LINE # 421
004B 30D604         1433             JNB     AC,?C0093
004E 78FF           1434             MOV     R0,#0FFH
0050 E4             1435             CLR     A
0051 F6             1436             MOV     @R0,A
0052                1437     ?C0093:
                    1438     ;       if (OV!=1) test_status = 0;
                    1439                             ; SOURCE LINE # 422
0052 20D204         1440             JB      OV,?C0094
0055 78FF           1441             MOV     R0,#0FFH
0057 E4             1442             CLR     A
0058 F6             1443             MOV     @R0,A
0059                1444     ?C0094:
                    1445     ;       if (CY!=0) test_status = 0;
                    1446                             ; SOURCE LINE # 423
0059 30D704         1447             JNB     CY,?C0095
005C 78FF           1448             MOV     R0,#0FFH
005E E4             1449             CLR     A
005F F6             1450             MOV     @R0,A
0060                1451     ?C0095:
                    1452     ;       OV = 0;
                    1453                             ; SOURCE LINE # 424
0060 C2D2           1454             CLR     OV
                    1455     ; 
                    1456     ;       
                    1457     ;       #pragma ASM
                    1458     ;   mov acc,#80H
0062 75E080         1459               mov acc,#80H
                    1460     ;       mov R2,#81H
0065 7A81           1461               mov R2,#81H
                    1462     ;       setb C
0067 D3             1463               setb C
                    1464     ;       addc A,0x1a
0068 351A           1465               addc A,0x1a
                    1466     ;   #pragma ENDASM
                    1467     ;       if (ACC!=0x02) test_status = 0;
                    1468                             ; SOURCE LINE # 433
006A 6402           1469             XRL     A,#02H
006C 6004           1470             JZ      ?C0096
006E 78FF           1471             MOV     R0,#0FFH
0070 E4             1472             CLR     A
0071 F6             1473             MOV     @R0,A
0072                1474     ?C0096:
                    1475     ;       if (AC!=0) test_status = 0;
                    1476                             ; SOURCE LINE # 434
A51 MACRO ASSEMBLER  INSTRUCTION                                                          10/08/2013 10:14:03 PAGE    24

0072 30D604         1477             JNB     AC,?C0097
0075 78FF           1478             MOV     R0,#0FFH
0077 E4             1479             CLR     A
0078 F6             1480             MOV     @R0,A
0079                1481     ?C0097:
                    1482     ;       if (OV!=1) test_status = 0;
                    1483                             ; SOURCE LINE # 435
0079 20D204         1484             JB      OV,?C0098
007C 78FF           1485             MOV     R0,#0FFH
007E E4             1486             CLR     A
007F F6             1487             MOV     @R0,A
0080                1488     ?C0098:
                    1489     ;       if (CY!=1) test_status = 0;
                    1490                             ; SOURCE LINE # 436
0080 20D704         1491             JB      CY,?C0099
0083 78FF           1492             MOV     R0,#0FFH
0085 E4             1493             CLR     A
0086 F6             1494             MOV     @R0,A
0087                1495     ?C0099:
                    1496     ;       OV = 0;
                    1497                             ; SOURCE LINE # 437
0087 C2D2           1498             CLR     OV
                    1499     ;       CY = 0;
                    1500                             ; SOURCE LINE # 438
0089 C2D7           1501             CLR     CY
                    1502     ;       
                    1503     ;       #pragma ASM
                    1504     ;   mov acc,#0C0H
008B 75E0C0         1505               mov acc,#0C0H
                    1506     ;       mov R3,#0C2H
008E 7BC2           1507               mov R3,#0C2H
                    1508     ;       setb C
0090 D3             1509               setb C
                    1510     ;       addc A,0x1b
0091 351B           1511               addc A,0x1b
                    1512     ;   #pragma ENDASM
                    1513     ;       if (ACC!=0x83) test_status = 0;
                    1514                             ; SOURCE LINE # 446
0093 6483           1515             XRL     A,#083H
0095 6004           1516             JZ      ?C0100
0097 78FF           1517             MOV     R0,#0FFH
0099 E4             1518             CLR     A
009A F6             1519             MOV     @R0,A
009B                1520     ?C0100:
                    1521     ;       if (AC!=0) test_status = 0;
                    1522                             ; SOURCE LINE # 447
009B 30D604         1523             JNB     AC,?C0101
009E 78FF           1524             MOV     R0,#0FFH
00A0 E4             1525             CLR     A
00A1 F6             1526             MOV     @R0,A
00A2                1527     ?C0101:
                    1528     ;       if (OV!=0) test_status = 0;
                    1529                             ; SOURCE LINE # 448
00A2 30D204         1530             JNB     OV,?C0102
00A5 78FF           1531             MOV     R0,#0FFH
00A7 E4             1532             CLR     A
00A8 F6             1533             MOV     @R0,A
00A9                1534     ?C0102:
                    1535     ;       if (CY!=1) test_status = 0;
                    1536                             ; SOURCE LINE # 449
00A9 20D704         1537             JB      CY,?C0103
00AC 78FF           1538             MOV     R0,#0FFH
00AE E4             1539             CLR     A
00AF F6             1540             MOV     @R0,A
00B0                1541     ?C0103:
                    1542     ;       CY = 0; 
A51 MACRO ASSEMBLER  INSTRUCTION                                                          10/08/2013 10:14:03 PAGE    25

                    1543                             ; SOURCE LINE # 450
00B0 C2D7           1544             CLR     CY
                    1545     ;       
                    1546     ;       #pragma ASM 
                    1547     ;       pop acc
00B2 D0E0           1548               pop acc
                    1549     ;   pop psw     
00B4 D0D0           1550               pop psw       
                    1551     ;   #pragma ENDASM      
                    1552     ; }
                    1553                             ; SOURCE LINE # 456
00B6 22             1554             RET     
                    1555     ; END OF addc_a_di
                    1556     
                    1557     ; 
                    1558     ; void addc_a_ri(void) {
                    1559     
----                1560             RSEG  ?PR?addc_a_ri?INSTRUCTION
0000                1561     addc_a_ri:
                    1562             USING   0
                    1563                             ; SOURCE LINE # 458
                    1564     ;       printf("ADDC_A_RI\n");
                    1565                             ; SOURCE LINE # 459
0000 7BFF           1566             MOV     R3,#0FFH
0002 7A00     F     1567             MOV     R2,#HIGH (?SC_62)
0004 7900     F     1568             MOV     R1,#LOW (?SC_62)
0006 120000   F     1569             LCALL   _printf
                    1570     ;       #pragma ASM  
                    1571     ;       push psw
0009 C0D0           1572               push psw
                    1573     ;       push acc
000B C0E0           1574               push acc
                    1575     ;   mov  psw,#0H        
000D 75D000         1576               mov  psw,#0H  
                    1577     ;   setb rs0     
0010 D2D3           1578               setb rs0     
                    1579     ;       setb rs1        
0012 D2D4           1580               setb rs1      
                    1581     ;   #pragma ENDASM 
                    1582     ;       
                    1583     ;       #pragma ASM
                    1584     ;       mov acc,#01H
0014 75E001         1585               mov acc,#01H
                    1586     ;       mov R2,#0fH
0017 7A0F           1587               mov R2,#0fH
                    1588     ;       mov R0,#1aH
0019 781A           1589               mov R0,#1aH
                    1590     ;       setb C
001B D3             1591               setb C
                    1592     ;       addc A,@R0
001C 36             1593               addc A,@R0
                    1594     ;   #pragma ENDASM      
                    1595     ;       if (ACC!=0x11) test_status = 0;
                    1596                             ; SOURCE LINE # 475
001D 6411           1597             XRL     A,#011H
001F 6004           1598             JZ      ?C0105
0021 78FF           1599             MOV     R0,#0FFH
0023 E4             1600             CLR     A
0024 F6             1601             MOV     @R0,A
0025                1602     ?C0105:
                    1603     ;       if (AC!=1) test_status = 0;
                    1604                             ; SOURCE LINE # 476
0025 20D604         1605             JB      AC,?C0106
0028 78FF           1606             MOV     R0,#0FFH
002A E4             1607             CLR     A
002B F6             1608             MOV     @R0,A
A51 MACRO ASSEMBLER  INSTRUCTION                                                          10/08/2013 10:14:03 PAGE    26

002C                1609     ?C0106:
                    1610     ;       if (OV!=0) test_status = 0;
                    1611                             ; SOURCE LINE # 477
002C 30D204         1612             JNB     OV,?C0107
002F 78FF           1613             MOV     R0,#0FFH
0031 E4             1614             CLR     A
0032 F6             1615             MOV     @R0,A
0033                1616     ?C0107:
                    1617     ;       if (CY!=0) test_status = 0;
                    1618                             ; SOURCE LINE # 478
0033 30D704         1619             JNB     CY,?C0108
0036 78FF           1620             MOV     R0,#0FFH
0038 E4             1621             CLR     A
0039 F6             1622             MOV     @R0,A
003A                1623     ?C0108:
                    1624     ;       AC = 0;
                    1625                             ; SOURCE LINE # 479
003A C2D6           1626             CLR     AC
                    1627     ;               
                    1628     ;       #pragma ASM
                    1629     ;       mov acc,#40H
003C 75E040         1630               mov acc,#40H
                    1631     ;       mov R2,#40H
003F 7A40           1632               mov R2,#40H
                    1633     ;       mov R0,#1aH
0041 781A           1634               mov R0,#1aH
                    1635     ;       setb C
0043 D3             1636               setb C
                    1637     ;       addc A,@R0
0044 36             1638               addc A,@R0
                    1639     ;       #pragma ENDASM
                    1640     ;       if (ACC!=0x81) test_status = 0;
                    1641                             ; SOURCE LINE # 488
0045 6481           1642             XRL     A,#081H
0047 6004           1643             JZ      ?C0109
0049 78FF           1644             MOV     R0,#0FFH
004B E4             1645             CLR     A
004C F6             1646             MOV     @R0,A
004D                1647     ?C0109:
                    1648     ;       if (AC!=0) test_status = 0;
                    1649                             ; SOURCE LINE # 489
004D 30D604         1650             JNB     AC,?C0110
0050 78FF           1651             MOV     R0,#0FFH
0052 E4             1652             CLR     A
0053 F6             1653             MOV     @R0,A
0054                1654     ?C0110:
                    1655     ;       if (OV!=1) test_status = 0;
                    1656                             ; SOURCE LINE # 490
0054 20D204         1657             JB      OV,?C0111
0057 78FF           1658             MOV     R0,#0FFH
0059 E4             1659             CLR     A
005A F6             1660             MOV     @R0,A
005B                1661     ?C0111:
                    1662     ;       if (CY!=0) test_status = 0;
                    1663                             ; SOURCE LINE # 491
005B 30D704         1664             JNB     CY,?C0112
005E 78FF           1665             MOV     R0,#0FFH
0060 E4             1666             CLR     A
0061 F6             1667             MOV     @R0,A
0062                1668     ?C0112:
                    1669     ;       OV = 0;
                    1670                             ; SOURCE LINE # 492
0062 C2D2           1671             CLR     OV
                    1672     ; 
                    1673     ;       
                    1674     ;       #pragma ASM
A51 MACRO ASSEMBLER  INSTRUCTION                                                          10/08/2013 10:14:03 PAGE    27

                    1675     ;   mov acc,#80H
0064 75E080         1676               mov acc,#80H
                    1677     ;       mov R3,#81H
0067 7B81           1678               mov R3,#81H
                    1679     ;       mov R1,#1bH
0069 791B           1680               mov R1,#1bH
                    1681     ;       setb C
006B D3             1682               setb C
                    1683     ;       addc A,@R1
006C 37             1684               addc A,@R1
                    1685     ;   #pragma ENDASM
                    1686     ;       if (ACC!=0x02) test_status = 0;
                    1687                             ; SOURCE LINE # 502
006D 6402           1688             XRL     A,#02H
006F 6004           1689             JZ      ?C0113
0071 78FF           1690             MOV     R0,#0FFH
0073 E4             1691             CLR     A
0074 F6             1692             MOV     @R0,A
0075                1693     ?C0113:
                    1694     ;       if (AC!=0) test_status = 0;
                    1695                             ; SOURCE LINE # 503
0075 30D604         1696             JNB     AC,?C0114
0078 78FF           1697             MOV     R0,#0FFH
007A E4             1698             CLR     A
007B F6             1699             MOV     @R0,A
007C                1700     ?C0114:
                    1701     ;       if (OV!=1) test_status = 0;
                    1702                             ; SOURCE LINE # 504
007C 20D204         1703             JB      OV,?C0115
007F 78FF           1704             MOV     R0,#0FFH
0081 E4             1705             CLR     A
0082 F6             1706             MOV     @R0,A
0083                1707     ?C0115:
                    1708     ;       if (CY!=1) test_status = 0;
                    1709                             ; SOURCE LINE # 505
0083 20D704         1710             JB      CY,?C0116
0086 78FF           1711             MOV     R0,#0FFH
0088 E4             1712             CLR     A
0089 F6             1713             MOV     @R0,A
008A                1714     ?C0116:
                    1715     ;       OV = 0;
                    1716                             ; SOURCE LINE # 506
008A C2D2           1717             CLR     OV
                    1718     ;       CY = 0;
                    1719                             ; SOURCE LINE # 507
008C C2D7           1720             CLR     CY
                    1721     ;       
                    1722     ;       #pragma ASM
                    1723     ;   mov acc,#0C0H
008E 75E0C0         1724               mov acc,#0C0H
                    1725     ;       mov R3,#0C2H
0091 7BC2           1726               mov R3,#0C2H
                    1727     ;       mov R1,#1bH
0093 791B           1728               mov R1,#1bH
                    1729     ;       setb C
0095 D3             1730               setb C
                    1731     ;       addc A,@R1
0096 37             1732               addc A,@R1
                    1733     ;   #pragma ENDASM
                    1734     ;       if (ACC!=0x83) test_status = 0;
                    1735                             ; SOURCE LINE # 516
0097 6483           1736             XRL     A,#083H
0099 6004           1737             JZ      ?C0117
009B 78FF           1738             MOV     R0,#0FFH
009D E4             1739             CLR     A
009E F6             1740             MOV     @R0,A
A51 MACRO ASSEMBLER  INSTRUCTION                                                          10/08/2013 10:14:03 PAGE    28

009F                1741     ?C0117:
                    1742     ;       if (AC!=0) test_status = 0;
                    1743                             ; SOURCE LINE # 517
009F 30D604         1744             JNB     AC,?C0118
00A2 78FF           1745             MOV     R0,#0FFH
00A4 E4             1746             CLR     A
00A5 F6             1747             MOV     @R0,A
00A6                1748     ?C0118:
                    1749     ;       if (OV!=0) test_status = 0;
                    1750                             ; SOURCE LINE # 518
00A6 30D204         1751             JNB     OV,?C0119
00A9 78FF           1752             MOV     R0,#0FFH
00AB E4             1753             CLR     A
00AC F6             1754             MOV     @R0,A
00AD                1755     ?C0119:
                    1756     ;       if (CY!=1) test_status = 0;
                    1757                             ; SOURCE LINE # 519
00AD 20D704         1758             JB      CY,?C0120
00B0 78FF           1759             MOV     R0,#0FFH
00B2 E4             1760             CLR     A
00B3 F6             1761             MOV     @R0,A
00B4                1762     ?C0120:
                    1763     ;       CY = 0; 
                    1764                             ; SOURCE LINE # 520
00B4 C2D7           1765             CLR     CY
                    1766     ;       
                    1767     ;       #pragma ASM 
                    1768     ;       pop acc
00B6 D0E0           1769               pop acc
                    1770     ;   pop psw     
00B8 D0D0           1771               pop psw       
                    1772     ;   #pragma ENDASM      
                    1773     ; }
                    1774                             ; SOURCE LINE # 526
00BA 22             1775             RET     
                    1776     ; END OF addc_a_ri
                    1777     
                    1778     ; 
                    1779     ; void addc_a_da(void) {
                    1780     
----                1781             RSEG  ?PR?addc_a_da?INSTRUCTION
0000                1782     addc_a_da:
                    1783             USING   0
                    1784                             ; SOURCE LINE # 528
                    1785     ;       printf("ADDC_A_DA\n");  
                    1786                             ; SOURCE LINE # 529
0000 7BFF           1787             MOV     R3,#0FFH
0002 7A00     F     1788             MOV     R2,#HIGH (?SC_73)
0004 7900     F     1789             MOV     R1,#LOW (?SC_73)
0006 120000   F     1790             LCALL   _printf
                    1791     ;       #pragma ASM  
                    1792     ;       push psw
0009 C0D0           1793               push psw
                    1794     ;       push acc
000B C0E0           1795               push acc
                    1796     ;   mov  psw,#0H        
000D 75D000         1797               mov  psw,#0H  
                    1798     ;   setb rs0     
0010 D2D3           1799               setb rs0     
                    1800     ;       setb rs1        
0012 D2D4           1801               setb rs1      
                    1802     ;   #pragma ENDASM 
                    1803     ;       
                    1804     ;       #pragma ASM
                    1805     ;       mov acc,#01H
0014 75E001         1806               mov acc,#01H
A51 MACRO ASSEMBLER  INSTRUCTION                                                          10/08/2013 10:14:03 PAGE    29

                    1807     ;       setb C
0017 D3             1808               setb C
                    1809     ;       addc A,#0fH
0018 340F           1810               addc A,#0fH
                    1811     ;   #pragma ENDASM      
                    1812     ;       if (ACC!=0x11) test_status = 0;
                    1813                             ; SOURCE LINE # 543
001A 6411           1814             XRL     A,#011H
001C 6004           1815             JZ      ?C0122
001E 78FF           1816             MOV     R0,#0FFH
0020 E4             1817             CLR     A
0021 F6             1818             MOV     @R0,A
0022                1819     ?C0122:
                    1820     ;       if (AC!=1) test_status = 0;
                    1821                             ; SOURCE LINE # 544
0022 20D604         1822             JB      AC,?C0123
0025 78FF           1823             MOV     R0,#0FFH
0027 E4             1824             CLR     A
0028 F6             1825             MOV     @R0,A
0029                1826     ?C0123:
                    1827     ;       if (OV!=0) test_status = 0;
                    1828                             ; SOURCE LINE # 545
0029 30D204         1829             JNB     OV,?C0124
002C 78FF           1830             MOV     R0,#0FFH
002E E4             1831             CLR     A
002F F6             1832             MOV     @R0,A
0030                1833     ?C0124:
                    1834     ;       if (CY!=0) test_status = 0;
                    1835                             ; SOURCE LINE # 546
0030 30D704         1836             JNB     CY,?C0125
0033 78FF           1837             MOV     R0,#0FFH
0035 E4             1838             CLR     A
0036 F6             1839             MOV     @R0,A
0037                1840     ?C0125:
                    1841     ;       AC = 0;
                    1842                             ; SOURCE LINE # 547
0037 C2D6           1843             CLR     AC
                    1844     ;               
                    1845     ;       #pragma ASM
                    1846     ;       mov acc,#40H
0039 75E040         1847               mov acc,#40H
                    1848     ;       setb C
003C D3             1849               setb C
                    1850     ;       addc A,#40H
003D 3440           1851               addc A,#40H
                    1852     ;       #pragma ENDASM
                    1853     ;       if (ACC!=0x81) test_status = 0;
                    1854                             ; SOURCE LINE # 554
003F 6481           1855             XRL     A,#081H
0041 6004           1856             JZ      ?C0126
0043 78FF           1857             MOV     R0,#0FFH
0045 E4             1858             CLR     A
0046 F6             1859             MOV     @R0,A
0047                1860     ?C0126:
                    1861     ;       if (AC!=0) test_status = 0;
                    1862                             ; SOURCE LINE # 555
0047 30D604         1863             JNB     AC,?C0127
004A 78FF           1864             MOV     R0,#0FFH
004C E4             1865             CLR     A
004D F6             1866             MOV     @R0,A
004E                1867     ?C0127:
                    1868     ;       if (OV!=1) test_status = 0;
                    1869                             ; SOURCE LINE # 556
004E 20D204         1870             JB      OV,?C0128
0051 78FF           1871             MOV     R0,#0FFH
0053 E4             1872             CLR     A
A51 MACRO ASSEMBLER  INSTRUCTION                                                          10/08/2013 10:14:03 PAGE    30

0054 F6             1873             MOV     @R0,A
0055                1874     ?C0128:
                    1875     ;       if (CY!=0) test_status = 0;
                    1876                             ; SOURCE LINE # 557
0055 30D704         1877             JNB     CY,?C0129
0058 78FF           1878             MOV     R0,#0FFH
005A E4             1879             CLR     A
005B F6             1880             MOV     @R0,A
005C                1881     ?C0129:
                    1882     ;       OV = 0;
                    1883                             ; SOURCE LINE # 558
005C C2D2           1884             CLR     OV
                    1885     ; 
                    1886     ;       
                    1887     ;       #pragma ASM
                    1888     ;   mov acc,#80H
005E 75E080         1889               mov acc,#80H
                    1890     ;       setb C
0061 D3             1891               setb C
                    1892     ;       addc A,#81H
0062 3481           1893               addc A,#81H
                    1894     ;   #pragma ENDASM
                    1895     ;       if (ACC!=0x02) test_status = 0;
                    1896                             ; SOURCE LINE # 566
0064 6402           1897             XRL     A,#02H
0066 6004           1898             JZ      ?C0130
0068 78FF           1899             MOV     R0,#0FFH
006A E4             1900             CLR     A
006B F6             1901             MOV     @R0,A
006C                1902     ?C0130:
                    1903     ;       if (AC!=0) test_status = 0;
                    1904                             ; SOURCE LINE # 567
006C 30D604         1905             JNB     AC,?C0131
006F 78FF           1906             MOV     R0,#0FFH
0071 E4             1907             CLR     A
0072 F6             1908             MOV     @R0,A
0073                1909     ?C0131:
                    1910     ;       if (OV!=1) test_status = 0;
                    1911                             ; SOURCE LINE # 568
0073 20D204         1912             JB      OV,?C0132
0076 78FF           1913             MOV     R0,#0FFH
0078 E4             1914             CLR     A
0079 F6             1915             MOV     @R0,A
007A                1916     ?C0132:
                    1917     ;       if (CY!=1) test_status = 0;
                    1918                             ; SOURCE LINE # 569
007A 20D704         1919             JB      CY,?C0133
007D 78FF           1920             MOV     R0,#0FFH
007F E4             1921             CLR     A
0080 F6             1922             MOV     @R0,A
0081                1923     ?C0133:
                    1924     ;       OV = 0;
                    1925                             ; SOURCE LINE # 570
0081 C2D2           1926             CLR     OV
                    1927     ;       CY = 0;
                    1928                             ; SOURCE LINE # 571
0083 C2D7           1929             CLR     CY
                    1930     ;       
                    1931     ;       #pragma ASM
                    1932     ;   mov acc,#0C0H
0085 75E0C0         1933               mov acc,#0C0H
                    1934     ;       setb C
0088 D3             1935               setb C
                    1936     ;       addc A,#0C2H
0089 34C2           1937               addc A,#0C2H
                    1938     ;   #pragma ENDASM
A51 MACRO ASSEMBLER  INSTRUCTION                                                          10/08/2013 10:14:03 PAGE    31

                    1939     ;       if (ACC!=0x83) test_status = 0;
                    1940                             ; SOURCE LINE # 578
008B 6483           1941             XRL     A,#083H
008D 6004           1942             JZ      ?C0134
008F 78FF           1943             MOV     R0,#0FFH
0091 E4             1944             CLR     A
0092 F6             1945             MOV     @R0,A
0093                1946     ?C0134:
                    1947     ;       if (AC!=0) test_status = 0;
                    1948                             ; SOURCE LINE # 579
0093 30D604         1949             JNB     AC,?C0135
0096 78FF           1950             MOV     R0,#0FFH
0098 E4             1951             CLR     A
0099 F6             1952             MOV     @R0,A
009A                1953     ?C0135:
                    1954     ;       if (OV!=0) test_status = 0;
                    1955                             ; SOURCE LINE # 580
009A 30D204         1956             JNB     OV,?C0136
009D 78FF           1957             MOV     R0,#0FFH
009F E4             1958             CLR     A
00A0 F6             1959             MOV     @R0,A
00A1                1960     ?C0136:
                    1961     ;       if (CY!=1) test_status = 0;
                    1962                             ; SOURCE LINE # 581
00A1 20D704         1963             JB      CY,?C0137
00A4 78FF           1964             MOV     R0,#0FFH
00A6 E4             1965             CLR     A
00A7 F6             1966             MOV     @R0,A
00A8                1967     ?C0137:
                    1968     ;       CY = 0; 
                    1969                             ; SOURCE LINE # 582
00A8 C2D7           1970             CLR     CY
                    1971     ;       
                    1972     ;       #pragma ASM 
                    1973     ;       pop acc
00AA D0E0           1974               pop acc
                    1975     ;   pop psw     
00AC D0D0           1976               pop psw       
                    1977     ;   #pragma ENDASM      
                    1978     ; }
                    1979                             ; SOURCE LINE # 588
00AE 22             1980             RET     
                    1981     ; END OF addc_a_da
                    1982     
                    1983     ; 
                    1984     ; void subb_a_rn(void) {
                    1985     
----                1986             RSEG  ?PR?subb_a_rn?INSTRUCTION
0000                1987     subb_a_rn:
                    1988             USING   0
                    1989                             ; SOURCE LINE # 590
                    1990     ;       printf("SUBB_A_RN\n");
                    1991                             ; SOURCE LINE # 591
0000 7BFF           1992             MOV     R3,#0FFH
0002 7A00     F     1993             MOV     R2,#HIGH (?SC_84)
0004 7900     F     1994             MOV     R1,#LOW (?SC_84)
0006 120000   F     1995             LCALL   _printf
                    1996     ;       #pragma ASM  
                    1997     ;       push psw
0009 C0D0           1998               push psw
                    1999     ;       push acc
000B C0E0           2000               push acc
                    2001     ;   mov  psw,#0H        
000D 75D000         2002               mov  psw,#0H  
                    2003     ;   setb rs0     
0010 D2D3           2004               setb rs0     
A51 MACRO ASSEMBLER  INSTRUCTION                                                          10/08/2013 10:14:03 PAGE    32

                    2005     ;       setb rs1        
0012 D2D4           2006               setb rs1      
                    2007     ;   #pragma ENDASM 
                    2008     ;       
                    2009     ;       #pragma ASM
                    2010     ;       mov acc,#10H
0014 75E010         2011               mov acc,#10H
                    2012     ;       mov R0,#0eH
0017 780E           2013               mov R0,#0eH
                    2014     ;       setb C
0019 D3             2015               setb C
                    2016     ;       subb A,R0
001A 98             2017               subb A,R0
                    2018     ;   #pragma ENDASM      
                    2019     ;       if (ACC!=0x1) test_status = 0;
                    2020                             ; SOURCE LINE # 606
001B 6401           2021             XRL     A,#01H
001D 6004           2022             JZ      ?C0139
001F 78FF           2023             MOV     R0,#0FFH
0021 E4             2024             CLR     A
0022 F6             2025             MOV     @R0,A
0023                2026     ?C0139:
                    2027     ;       if (AC!=1) test_status = 0;
                    2028                             ; SOURCE LINE # 607
0023 20D604         2029             JB      AC,?C0140
0026 78FF           2030             MOV     R0,#0FFH
0028 E4             2031             CLR     A
0029 F6             2032             MOV     @R0,A
002A                2033     ?C0140:
                    2034     ;       if (OV!=0) test_status = 0;
                    2035                             ; SOURCE LINE # 608
002A 30D204         2036             JNB     OV,?C0141
002D 78FF           2037             MOV     R0,#0FFH
002F E4             2038             CLR     A
0030 F6             2039             MOV     @R0,A
0031                2040     ?C0141:
                    2041     ;       if (CY!=0) test_status = 0;
                    2042                             ; SOURCE LINE # 609
0031 30D704         2043             JNB     CY,?C0142
0034 78FF           2044             MOV     R0,#0FFH
0036 E4             2045             CLR     A
0037 F6             2046             MOV     @R0,A
0038                2047     ?C0142:
                    2048     ;       AC = 0;
                    2049                             ; SOURCE LINE # 610
0038 C2D6           2050             CLR     AC
                    2051     ;       
                    2052     ;       #pragma ASM
                    2053     ;       mov acc,#80H
003A 75E080         2054               mov acc,#80H
                    2055     ;       mov R1,#3fH
003D 793F           2056               mov R1,#3fH
                    2057     ;       setb C
003F D3             2058               setb C
                    2059     ;       subb A,R1
0040 99             2060               subb A,R1
                    2061     ;       #pragma ENDASM
                    2062     ;       if (ACC!=0x40) test_status = 0;
                    2063                             ; SOURCE LINE # 618
0041 6440           2064             XRL     A,#040H
0043 6004           2065             JZ      ?C0143
0045 78FF           2066             MOV     R0,#0FFH
0047 E4             2067             CLR     A
0048 F6             2068             MOV     @R0,A
0049                2069     ?C0143:
                    2070     ;       if (AC!=1) test_status = 0;
A51 MACRO ASSEMBLER  INSTRUCTION                                                          10/08/2013 10:14:03 PAGE    33

                    2071                             ; SOURCE LINE # 619
0049 20D604         2072             JB      AC,?C0144
004C 78FF           2073             MOV     R0,#0FFH
004E E4             2074             CLR     A
004F F6             2075             MOV     @R0,A
0050                2076     ?C0144:
                    2077     ;       if (OV!=1) test_status = 0;
                    2078                             ; SOURCE LINE # 620
0050 20D204         2079             JB      OV,?C0145
0053 78FF           2080             MOV     R0,#0FFH
0055 E4             2081             CLR     A
0056 F6             2082             MOV     @R0,A
0057                2083     ?C0145:
                    2084     ;       if (CY!=0) test_status = 0;
                    2085                             ; SOURCE LINE # 621
0057 30D704         2086             JNB     CY,?C0146
005A 78FF           2087             MOV     R0,#0FFH
005C E4             2088             CLR     A
005D F6             2089             MOV     @R0,A
005E                2090     ?C0146:
                    2091     ;       OV = 0;
                    2092                             ; SOURCE LINE # 622
005E C2D2           2093             CLR     OV
                    2094     ; 
                    2095     ;       
                    2096     ;       #pragma ASM
                    2097     ;   mov acc,#01H
0060 75E001         2098               mov acc,#01H
                    2099     ;       mov R2,#80H
0063 7A80           2100               mov R2,#80H
                    2101     ;       setb C
0065 D3             2102               setb C
                    2103     ;       subb A,R2
0066 9A             2104               subb A,R2
                    2105     ;   #pragma ENDASM
                    2106     ;       if (ACC!=0x80) test_status = 0;
                    2107                             ; SOURCE LINE # 631
0067 6480           2108             XRL     A,#080H
0069 6004           2109             JZ      ?C0147
006B 78FF           2110             MOV     R0,#0FFH
006D E4             2111             CLR     A
006E F6             2112             MOV     @R0,A
006F                2113     ?C0147:
                    2114     ;       if (AC!=0) test_status = 0;
                    2115                             ; SOURCE LINE # 632
006F 30D604         2116             JNB     AC,?C0148
0072 78FF           2117             MOV     R0,#0FFH
0074 E4             2118             CLR     A
0075 F6             2119             MOV     @R0,A
0076                2120     ?C0148:
                    2121     ;       if (OV!=1) test_status = 0;
                    2122                             ; SOURCE LINE # 633
0076 20D204         2123             JB      OV,?C0149
0079 78FF           2124             MOV     R0,#0FFH
007B E4             2125             CLR     A
007C F6             2126             MOV     @R0,A
007D                2127     ?C0149:
                    2128     ;       if (CY!=1) test_status = 0;
                    2129                             ; SOURCE LINE # 634
007D 20D704         2130             JB      CY,?C0150
0080 78FF           2131             MOV     R0,#0FFH
0082 E4             2132             CLR     A
0083 F6             2133             MOV     @R0,A
0084                2134     ?C0150:
                    2135     ;       OV = 0;
                    2136                             ; SOURCE LINE # 635
A51 MACRO ASSEMBLER  INSTRUCTION                                                          10/08/2013 10:14:03 PAGE    34

0084 C2D2           2137             CLR     OV
                    2138     ;       CY = 0;
                    2139                             ; SOURCE LINE # 636
0086 C2D7           2140             CLR     CY
                    2141     ; 
                    2142     ;       #pragma ASM
                    2143     ;   mov acc,#82H
0088 75E082         2144               mov acc,#82H
                    2145     ;       mov R3,#0C1H
008B 7BC1           2146               mov R3,#0C1H
                    2147     ;       setb C
008D D3             2148               setb C
                    2149     ;       subb A,R3
008E 9B             2150               subb A,R3
                    2151     ;   #pragma ENDASM
                    2152     ;       if (ACC!=0xC0) test_status = 0;
                    2153                             ; SOURCE LINE # 644
008F 64C0           2154             XRL     A,#0C0H
0091 6004           2155             JZ      ?C0151
0093 78FF           2156             MOV     R0,#0FFH
0095 E4             2157             CLR     A
0096 F6             2158             MOV     @R0,A
0097                2159     ?C0151:
                    2160     ;       if (AC!=0) test_status = 0;
                    2161                             ; SOURCE LINE # 645
0097 30D604         2162             JNB     AC,?C0152
009A 78FF           2163             MOV     R0,#0FFH
009C E4             2164             CLR     A
009D F6             2165             MOV     @R0,A
009E                2166     ?C0152:
                    2167     ;       if (OV!=0) test_status = 0;
                    2168                             ; SOURCE LINE # 646
009E 30D204         2169             JNB     OV,?C0153
00A1 78FF           2170             MOV     R0,#0FFH
00A3 E4             2171             CLR     A
00A4 F6             2172             MOV     @R0,A
00A5                2173     ?C0153:
                    2174     ;       if (CY!=1) test_status = 0;
                    2175                             ; SOURCE LINE # 647
00A5 20D704         2176             JB      CY,?C0154
00A8 78FF           2177             MOV     R0,#0FFH
00AA E4             2178             CLR     A
00AB F6             2179             MOV     @R0,A
00AC                2180     ?C0154:
                    2181     ;       CY = 0; 
                    2182                             ; SOURCE LINE # 648
00AC C2D7           2183             CLR     CY
                    2184     ;       
                    2185     ;       #pragma ASM 
                    2186     ;       pop acc
00AE D0E0           2187               pop acc
                    2188     ;   pop psw     
00B0 D0D0           2189               pop psw       
                    2190     ;   #pragma ENDASM      
                    2191     ; }
                    2192                             ; SOURCE LINE # 654
00B2 22             2193             RET     
                    2194     ; END OF subb_a_rn
                    2195     
                    2196     ; 
                    2197     ; void subb_a_di(void) {
                    2198     
----                2199             RSEG  ?PR?subb_a_di?INSTRUCTION
0000                2200     subb_a_di:
                    2201             USING   0
                    2202                             ; SOURCE LINE # 656
A51 MACRO ASSEMBLER  INSTRUCTION                                                          10/08/2013 10:14:03 PAGE    35

                    2203     ;       printf("SUBB_A_DI\n");
                    2204                             ; SOURCE LINE # 657
0000 7BFF           2205             MOV     R3,#0FFH
0002 7A00     F     2206             MOV     R2,#HIGH (?SC_95)
0004 7900     F     2207             MOV     R1,#LOW (?SC_95)
0006 120000   F     2208             LCALL   _printf
                    2209     ;       #pragma ASM  
                    2210     ;       push psw
0009 C0D0           2211               push psw
                    2212     ;       push acc
000B C0E0           2213               push acc
                    2214     ;   mov  psw,#0H        
000D 75D000         2215               mov  psw,#0H  
                    2216     ;   setb rs0     
0010 D2D3           2217               setb rs0     
                    2218     ;       setb rs1        
0012 D2D4           2219               setb rs1      
                    2220     ;   #pragma ENDASM 
                    2221     ;       
                    2222     ;       #pragma ASM
                    2223     ;       mov acc,#10H
0014 75E010         2224               mov acc,#10H
                    2225     ;       mov R0,#0eH
0017 780E           2226               mov R0,#0eH
                    2227     ;       setb C
0019 D3             2228               setb C
                    2229     ;       subb A,0x18
001A 9518           2230               subb A,0x18
                    2231     ;   #pragma ENDASM      
                    2232     ;       if (ACC!=0x1) test_status = 0;
                    2233                             ; SOURCE LINE # 672
001C 6401           2234             XRL     A,#01H
001E 6004           2235             JZ      ?C0156
0020 78FF           2236             MOV     R0,#0FFH
0022 E4             2237             CLR     A
0023 F6             2238             MOV     @R0,A
0024                2239     ?C0156:
                    2240     ;       if (AC!=1) test_status = 0;
                    2241                             ; SOURCE LINE # 673
0024 20D604         2242             JB      AC,?C0157
0027 78FF           2243             MOV     R0,#0FFH
0029 E4             2244             CLR     A
002A F6             2245             MOV     @R0,A
002B                2246     ?C0157:
                    2247     ;       if (OV!=0) test_status = 0;
                    2248                             ; SOURCE LINE # 674
002B 30D204         2249             JNB     OV,?C0158
002E 78FF           2250             MOV     R0,#0FFH
0030 E4             2251             CLR     A
0031 F6             2252             MOV     @R0,A
0032                2253     ?C0158:
                    2254     ;       if (CY!=0) test_status = 0;
                    2255                             ; SOURCE LINE # 675
0032 30D704         2256             JNB     CY,?C0159
0035 78FF           2257             MOV     R0,#0FFH
0037 E4             2258             CLR     A
0038 F6             2259             MOV     @R0,A
0039                2260     ?C0159:
                    2261     ;       AC = 0;
                    2262                             ; SOURCE LINE # 676
0039 C2D6           2263             CLR     AC
                    2264     ;       
                    2265     ;       #pragma ASM
                    2266     ;       mov acc,#80H
003B 75E080         2267               mov acc,#80H
                    2268     ;       mov R1,#3fH
A51 MACRO ASSEMBLER  INSTRUCTION                                                          10/08/2013 10:14:03 PAGE    36

003E 793F           2269               mov R1,#3fH
                    2270     ;       setb C
0040 D3             2271               setb C
                    2272     ;       subb A,0x19
0041 9519           2273               subb A,0x19
                    2274     ;       #pragma ENDASM
                    2275     ;       if (ACC!=0x40) test_status = 0;
                    2276                             ; SOURCE LINE # 684
0043 6440           2277             XRL     A,#040H
0045 6004           2278             JZ      ?C0160
0047 78FF           2279             MOV     R0,#0FFH
0049 E4             2280             CLR     A
004A F6             2281             MOV     @R0,A
004B                2282     ?C0160:
                    2283     ;       if (AC!=1) test_status = 0;
                    2284                             ; SOURCE LINE # 685
004B 20D604         2285             JB      AC,?C0161
004E 78FF           2286             MOV     R0,#0FFH
0050 E4             2287             CLR     A
0051 F6             2288             MOV     @R0,A
0052                2289     ?C0161:
                    2290     ;       if (OV!=1) test_status = 0;
                    2291                             ; SOURCE LINE # 686
0052 20D204         2292             JB      OV,?C0162
0055 78FF           2293             MOV     R0,#0FFH
0057 E4             2294             CLR     A
0058 F6             2295             MOV     @R0,A
0059                2296     ?C0162:
                    2297     ;       if (CY!=0) test_status = 0;
                    2298                             ; SOURCE LINE # 687
0059 30D704         2299             JNB     CY,?C0163
005C 78FF           2300             MOV     R0,#0FFH
005E E4             2301             CLR     A
005F F6             2302             MOV     @R0,A
0060                2303     ?C0163:
                    2304     ;       OV = 0;
                    2305                             ; SOURCE LINE # 688
0060 C2D2           2306             CLR     OV
                    2307     ; 
                    2308     ;       
                    2309     ;       #pragma ASM
                    2310     ;   mov acc,#01H
0062 75E001         2311               mov acc,#01H
                    2312     ;       mov R2,#80H
0065 7A80           2313               mov R2,#80H
                    2314     ;       setb C
0067 D3             2315               setb C
                    2316     ;       subb A,0x1a
0068 951A           2317               subb A,0x1a
                    2318     ;   #pragma ENDASM
                    2319     ;       if (ACC!=0x80) test_status = 0;
                    2320                             ; SOURCE LINE # 697
006A 6480           2321             XRL     A,#080H
006C 6004           2322             JZ      ?C0164
006E 78FF           2323             MOV     R0,#0FFH
0070 E4             2324             CLR     A
0071 F6             2325             MOV     @R0,A
0072                2326     ?C0164:
                    2327     ;       if (AC!=0) test_status = 0;
                    2328                             ; SOURCE LINE # 698
0072 30D604         2329             JNB     AC,?C0165
0075 78FF           2330             MOV     R0,#0FFH
0077 E4             2331             CLR     A
0078 F6             2332             MOV     @R0,A
0079                2333     ?C0165:
                    2334     ;       if (OV!=1) test_status = 0;
A51 MACRO ASSEMBLER  INSTRUCTION                                                          10/08/2013 10:14:03 PAGE    37

                    2335                             ; SOURCE LINE # 699
0079 20D204         2336             JB      OV,?C0166
007C 78FF           2337             MOV     R0,#0FFH
007E E4             2338             CLR     A
007F F6             2339             MOV     @R0,A
0080                2340     ?C0166:
                    2341     ;       if (CY!=1) test_status = 0;
                    2342                             ; SOURCE LINE # 700
0080 20D704         2343             JB      CY,?C0167
0083 78FF           2344             MOV     R0,#0FFH
0085 E4             2345             CLR     A
0086 F6             2346             MOV     @R0,A
0087                2347     ?C0167:
                    2348     ;       OV = 0;
                    2349                             ; SOURCE LINE # 701
0087 C2D2           2350             CLR     OV
                    2351     ;       CY = 0;
                    2352                             ; SOURCE LINE # 702
0089 C2D7           2353             CLR     CY
                    2354     ; 
                    2355     ;       #pragma ASM
                    2356     ;   mov acc,#82H
008B 75E082         2357               mov acc,#82H
                    2358     ;       mov R3,#0C1H
008E 7BC1           2359               mov R3,#0C1H
                    2360     ;       setb C
0090 D3             2361               setb C
                    2362     ;       subb A,0x1b
0091 951B           2363               subb A,0x1b
                    2364     ;   #pragma ENDASM
                    2365     ;       if (ACC!=0xC0) test_status = 0;
                    2366                             ; SOURCE LINE # 710
0093 64C0           2367             XRL     A,#0C0H
0095 6004           2368             JZ      ?C0168
0097 78FF           2369             MOV     R0,#0FFH
0099 E4             2370             CLR     A
009A F6             2371             MOV     @R0,A
009B                2372     ?C0168:
                    2373     ;       if (AC!=0) test_status = 0;
                    2374                             ; SOURCE LINE # 711
009B 30D604         2375             JNB     AC,?C0169
009E 78FF           2376             MOV     R0,#0FFH
00A0 E4             2377             CLR     A
00A1 F6             2378             MOV     @R0,A
00A2                2379     ?C0169:
                    2380     ;       if (OV!=0) test_status = 0;
                    2381                             ; SOURCE LINE # 712
00A2 30D204         2382             JNB     OV,?C0170
00A5 78FF           2383             MOV     R0,#0FFH
00A7 E4             2384             CLR     A
00A8 F6             2385             MOV     @R0,A
00A9                2386     ?C0170:
                    2387     ;       if (CY!=1) test_status = 0;
                    2388                             ; SOURCE LINE # 713
00A9 20D704         2389             JB      CY,?C0171
00AC 78FF           2390             MOV     R0,#0FFH
00AE E4             2391             CLR     A
00AF F6             2392             MOV     @R0,A
00B0                2393     ?C0171:
                    2394     ;       CY = 0; 
                    2395                             ; SOURCE LINE # 714
00B0 C2D7           2396             CLR     CY
                    2397     ;       
                    2398     ;       #pragma ASM 
                    2399     ;       pop acc
00B2 D0E0           2400               pop acc
A51 MACRO ASSEMBLER  INSTRUCTION                                                          10/08/2013 10:14:03 PAGE    38

                    2401     ;   pop psw     
00B4 D0D0           2402               pop psw       
                    2403     ;   #pragma ENDASM      
                    2404     ; }
                    2405                             ; SOURCE LINE # 720
00B6 22             2406             RET     
                    2407     ; END OF subb_a_di
                    2408     
                    2409     ; 
                    2410     ; void subb_a_ri(void) {
                    2411     
----                2412             RSEG  ?PR?subb_a_ri?INSTRUCTION
0000                2413     subb_a_ri:
                    2414             USING   0
                    2415                             ; SOURCE LINE # 722
                    2416     ;       printf("SUBB_A_RI\n");
                    2417                             ; SOURCE LINE # 723
0000 7BFF           2418             MOV     R3,#0FFH
0002 7A00     F     2419             MOV     R2,#HIGH (?SC_106)
0004 7900     F     2420             MOV     R1,#LOW (?SC_106)
0006 120000   F     2421             LCALL   _printf
                    2422     ;       #pragma ASM  
                    2423     ;       push psw
0009 C0D0           2424               push psw
                    2425     ;       push acc
000B C0E0           2426               push acc
                    2427     ;   mov  psw,#0H        
000D 75D000         2428               mov  psw,#0H  
                    2429     ;   setb rs0     
0010 D2D3           2430               setb rs0     
                    2431     ;       setb rs1        
0012 D2D4           2432               setb rs1      
                    2433     ;   #pragma ENDASM 
                    2434     ;       
                    2435     ;       #pragma ASM
                    2436     ;       mov acc,#10H
0014 75E010         2437               mov acc,#10H
                    2438     ;       mov R2,#0eH
0017 7A0E           2439               mov R2,#0eH
                    2440     ;       setb C
0019 D3             2441               setb C
                    2442     ;       mov R0,#1aH
001A 781A           2443               mov R0,#1aH
                    2444     ;       subb A,@R0
001C 96             2445               subb A,@R0
                    2446     ;   #pragma ENDASM      
                    2447     ;       if (ACC!=0x1) test_status = 0;
                    2448                             ; SOURCE LINE # 739
001D 6401           2449             XRL     A,#01H
001F 6004           2450             JZ      ?C0173
0021 78FF           2451             MOV     R0,#0FFH
0023 E4             2452             CLR     A
0024 F6             2453             MOV     @R0,A
0025                2454     ?C0173:
                    2455     ;       if (AC!=1) test_status = 0;
                    2456                             ; SOURCE LINE # 740
0025 20D604         2457             JB      AC,?C0174
0028 78FF           2458             MOV     R0,#0FFH
002A E4             2459             CLR     A
002B F6             2460             MOV     @R0,A
002C                2461     ?C0174:
                    2462     ;       if (OV!=0) test_status = 0;
                    2463                             ; SOURCE LINE # 741
002C 30D204         2464             JNB     OV,?C0175
002F 78FF           2465             MOV     R0,#0FFH
0031 E4             2466             CLR     A
A51 MACRO ASSEMBLER  INSTRUCTION                                                          10/08/2013 10:14:03 PAGE    39

0032 F6             2467             MOV     @R0,A
0033                2468     ?C0175:
                    2469     ;       if (CY!=0) test_status = 0;
                    2470                             ; SOURCE LINE # 742
0033 30D704         2471             JNB     CY,?C0176
0036 78FF           2472             MOV     R0,#0FFH
0038 E4             2473             CLR     A
0039 F6             2474             MOV     @R0,A
003A                2475     ?C0176:
                    2476     ;       AC = 0;
                    2477                             ; SOURCE LINE # 743
003A C2D6           2478             CLR     AC
                    2479     ;       
                    2480     ;       #pragma ASM
                    2481     ;       mov acc,#80H
003C 75E080         2482               mov acc,#80H
                    2483     ;       mov R2,#3fH
003F 7A3F           2484               mov R2,#3fH
                    2485     ;       setb C
0041 D3             2486               setb C
                    2487     ;       mov R0,#1aH
0042 781A           2488               mov R0,#1aH
                    2489     ;       subb A,@R0
0044 96             2490               subb A,@R0
                    2491     ;       #pragma ENDASM
                    2492     ;       if (ACC!=0x40) test_status = 0;
                    2493                             ; SOURCE LINE # 752
0045 6440           2494             XRL     A,#040H
0047 6004           2495             JZ      ?C0177
0049 78FF           2496             MOV     R0,#0FFH
004B E4             2497             CLR     A
004C F6             2498             MOV     @R0,A
004D                2499     ?C0177:
                    2500     ;       if (AC!=1) test_status = 0;
                    2501                             ; SOURCE LINE # 753
004D 20D604         2502             JB      AC,?C0178
0050 78FF           2503             MOV     R0,#0FFH
0052 E4             2504             CLR     A
0053 F6             2505             MOV     @R0,A
0054                2506     ?C0178:
                    2507     ;       if (OV!=1) test_status = 0;
                    2508                             ; SOURCE LINE # 754
0054 20D204         2509             JB      OV,?C0179
0057 78FF           2510             MOV     R0,#0FFH
0059 E4             2511             CLR     A
005A F6             2512             MOV     @R0,A
005B                2513     ?C0179:
                    2514     ;       if (CY!=0) test_status = 0;
                    2515                             ; SOURCE LINE # 755
005B 30D704         2516             JNB     CY,?C0180
005E 78FF           2517             MOV     R0,#0FFH
0060 E4             2518             CLR     A
0061 F6             2519             MOV     @R0,A
0062                2520     ?C0180:
                    2521     ;       OV = 0;
                    2522                             ; SOURCE LINE # 756
0062 C2D2           2523             CLR     OV
                    2524     ; 
                    2525     ;       
                    2526     ;       #pragma ASM
                    2527     ;   mov acc,#01H
0064 75E001         2528               mov acc,#01H
                    2529     ;       mov R3,#80H
0067 7B80           2530               mov R3,#80H
                    2531     ;       setb C
0069 D3             2532               setb C
A51 MACRO ASSEMBLER  INSTRUCTION                                                          10/08/2013 10:14:03 PAGE    40

                    2533     ;       mov R1,#1bH
006A 791B           2534               mov R1,#1bH
                    2535     ;       subb A,@R1
006C 97             2536               subb A,@R1
                    2537     ;   #pragma ENDASM
                    2538     ;       if (ACC!=0x80) test_status = 0;
                    2539                             ; SOURCE LINE # 766
006D 6480           2540             XRL     A,#080H
006F 6004           2541             JZ      ?C0181
0071 78FF           2542             MOV     R0,#0FFH
0073 E4             2543             CLR     A
0074 F6             2544             MOV     @R0,A
0075                2545     ?C0181:
                    2546     ;       if (AC!=0) test_status = 0;
                    2547                             ; SOURCE LINE # 767
0075 30D604         2548             JNB     AC,?C0182
0078 78FF           2549             MOV     R0,#0FFH
007A E4             2550             CLR     A
007B F6             2551             MOV     @R0,A
007C                2552     ?C0182:
                    2553     ;       if (OV!=1) test_status = 0;
                    2554                             ; SOURCE LINE # 768
007C 20D204         2555             JB      OV,?C0183
007F 78FF           2556             MOV     R0,#0FFH
0081 E4             2557             CLR     A
0082 F6             2558             MOV     @R0,A
0083                2559     ?C0183:
                    2560     ;       if (CY!=1) test_status = 0;
                    2561                             ; SOURCE LINE # 769
0083 20D704         2562             JB      CY,?C0184
0086 78FF           2563             MOV     R0,#0FFH
0088 E4             2564             CLR     A
0089 F6             2565             MOV     @R0,A
008A                2566     ?C0184:
                    2567     ;       OV = 0;
                    2568                             ; SOURCE LINE # 770
008A C2D2           2569             CLR     OV
                    2570     ;       CY = 0;
                    2571                             ; SOURCE LINE # 771
008C C2D7           2572             CLR     CY
                    2573     ; 
                    2574     ;       #pragma ASM
                    2575     ;   mov acc,#82H
008E 75E082         2576               mov acc,#82H
                    2577     ;       mov R3,#0C1H
0091 7BC1           2578               mov R3,#0C1H
                    2579     ;       setb C
0093 D3             2580               setb C
                    2581     ;       mov R1,#1bH
0094 791B           2582               mov R1,#1bH
                    2583     ;       subb A,@R1
0096 97             2584               subb A,@R1
                    2585     ;   #pragma ENDASM
                    2586     ;       if (ACC!=0xC0) test_status = 0;
                    2587                             ; SOURCE LINE # 780
0097 64C0           2588             XRL     A,#0C0H
0099 6004           2589             JZ      ?C0185
009B 78FF           2590             MOV     R0,#0FFH
009D E4             2591             CLR     A
009E F6             2592             MOV     @R0,A
009F                2593     ?C0185:
                    2594     ;       if (AC!=0) test_status = 0;
                    2595                             ; SOURCE LINE # 781
009F 30D604         2596             JNB     AC,?C0186
00A2 78FF           2597             MOV     R0,#0FFH
00A4 E4             2598             CLR     A
A51 MACRO ASSEMBLER  INSTRUCTION                                                          10/08/2013 10:14:03 PAGE    41

00A5 F6             2599             MOV     @R0,A
00A6                2600     ?C0186:
                    2601     ;       if (OV!=0) test_status = 0;
                    2602                             ; SOURCE LINE # 782
00A6 30D204         2603             JNB     OV,?C0187
00A9 78FF           2604             MOV     R0,#0FFH
00AB E4             2605             CLR     A
00AC F6             2606             MOV     @R0,A
00AD                2607     ?C0187:
                    2608     ;       if (CY!=1) test_status = 0;
                    2609                             ; SOURCE LINE # 783
00AD 20D704         2610             JB      CY,?C0188
00B0 78FF           2611             MOV     R0,#0FFH
00B2 E4             2612             CLR     A
00B3 F6             2613             MOV     @R0,A
00B4                2614     ?C0188:
                    2615     ;       CY = 0; 
                    2616                             ; SOURCE LINE # 784
00B4 C2D7           2617             CLR     CY
                    2618     ;       
                    2619     ;       #pragma ASM 
                    2620     ;       pop acc
00B6 D0E0           2621               pop acc
                    2622     ;   pop psw     
00B8 D0D0           2623               pop psw       
                    2624     ;   #pragma ENDASM      
                    2625     ; }
                    2626                             ; SOURCE LINE # 790
00BA 22             2627             RET     
                    2628     ; END OF subb_a_ri
                    2629     
                    2630     ; 
                    2631     ; void subb_a_da(void) {
                    2632     
----                2633             RSEG  ?PR?subb_a_da?INSTRUCTION
0000                2634     subb_a_da:
                    2635             USING   0
                    2636                             ; SOURCE LINE # 792
                    2637     ;       printf("SUBB_A_DA\n");
                    2638                             ; SOURCE LINE # 793
0000 7BFF           2639             MOV     R3,#0FFH
0002 7A00     F     2640             MOV     R2,#HIGH (?SC_117)
0004 7900     F     2641             MOV     R1,#LOW (?SC_117)
0006 120000   F     2642             LCALL   _printf
                    2643     ;       #pragma ASM  
                    2644     ;       push psw
0009 C0D0           2645               push psw
                    2646     ;       push acc
000B C0E0           2647               push acc
                    2648     ;   mov  psw,#0H        
000D 75D000         2649               mov  psw,#0H  
                    2650     ;   setb rs0     
0010 D2D3           2651               setb rs0     
                    2652     ;       setb rs1        
0012 D2D4           2653               setb rs1      
                    2654     ;   #pragma ENDASM 
                    2655     ;       
                    2656     ;       #pragma ASM
                    2657     ;       mov acc,#10H
0014 75E010         2658               mov acc,#10H
                    2659     ;       setb C
0017 D3             2660               setb C
                    2661     ;       subb A,#0eH
0018 940E           2662               subb A,#0eH
                    2663     ;   #pragma ENDASM      
                    2664     ;       if (ACC!=0x1) test_status = 0;
A51 MACRO ASSEMBLER  INSTRUCTION                                                          10/08/2013 10:14:03 PAGE    42

                    2665                             ; SOURCE LINE # 807
001A 6401           2666             XRL     A,#01H
001C 6004           2667             JZ      ?C0190
001E 78FF           2668             MOV     R0,#0FFH
0020 E4             2669             CLR     A
0021 F6             2670             MOV     @R0,A
0022                2671     ?C0190:
                    2672     ;       if (AC!=1) test_status = 0;
                    2673                             ; SOURCE LINE # 808
0022 20D604         2674             JB      AC,?C0191
0025 78FF           2675             MOV     R0,#0FFH
0027 E4             2676             CLR     A
0028 F6             2677             MOV     @R0,A
0029                2678     ?C0191:
                    2679     ;       if (OV!=0) test_status = 0;
                    2680                             ; SOURCE LINE # 809
0029 30D204         2681             JNB     OV,?C0192
002C 78FF           2682             MOV     R0,#0FFH
002E E4             2683             CLR     A
002F F6             2684             MOV     @R0,A
0030                2685     ?C0192:
                    2686     ;       if (CY!=0) test_status = 0;
                    2687                             ; SOURCE LINE # 810
0030 30D704         2688             JNB     CY,?C0193
0033 78FF           2689             MOV     R0,#0FFH
0035 E4             2690             CLR     A
0036 F6             2691             MOV     @R0,A
0037                2692     ?C0193:
                    2693     ;       AC = 0;
                    2694                             ; SOURCE LINE # 811
0037 C2D6           2695             CLR     AC
                    2696     ;       
                    2697     ;       #pragma ASM
                    2698     ;       mov acc,#80H
0039 75E080         2699               mov acc,#80H
                    2700     ;       setb C
003C D3             2701               setb C
                    2702     ;       subb A,#3fH
003D 943F           2703               subb A,#3fH
                    2704     ;       #pragma ENDASM
                    2705     ;       if (ACC!=0x40) test_status = 0;
                    2706                             ; SOURCE LINE # 818
003F 6440           2707             XRL     A,#040H
0041 6004           2708             JZ      ?C0194
0043 78FF           2709             MOV     R0,#0FFH
0045 E4             2710             CLR     A
0046 F6             2711             MOV     @R0,A
0047                2712     ?C0194:
                    2713     ;       if (AC!=1) test_status = 0;
                    2714                             ; SOURCE LINE # 819
0047 20D604         2715             JB      AC,?C0195
004A 78FF           2716             MOV     R0,#0FFH
004C E4             2717             CLR     A
004D F6             2718             MOV     @R0,A
004E                2719     ?C0195:
                    2720     ;       if (OV!=1) test_status = 0;
                    2721                             ; SOURCE LINE # 820
004E 20D204         2722             JB      OV,?C0196
0051 78FF           2723             MOV     R0,#0FFH
0053 E4             2724             CLR     A
0054 F6             2725             MOV     @R0,A
0055                2726     ?C0196:
                    2727     ;       if (CY!=0) test_status = 0;
                    2728                             ; SOURCE LINE # 821
0055 30D704         2729             JNB     CY,?C0197
0058 78FF           2730             MOV     R0,#0FFH
A51 MACRO ASSEMBLER  INSTRUCTION                                                          10/08/2013 10:14:03 PAGE    43

005A E4             2731             CLR     A
005B F6             2732             MOV     @R0,A
005C                2733     ?C0197:
                    2734     ;       OV = 0;
                    2735                             ; SOURCE LINE # 822
005C C2D2           2736             CLR     OV
                    2737     ; 
                    2738     ;       
                    2739     ;       #pragma ASM
                    2740     ;   mov acc,#01H
005E 75E001         2741               mov acc,#01H
                    2742     ;       setb C
0061 D3             2743               setb C
                    2744     ;       subb A,#80H
0062 9480           2745               subb A,#80H
                    2746     ;   #pragma ENDASM
                    2747     ;       if (ACC!=0x80) test_status = 0;
                    2748                             ; SOURCE LINE # 830
0064 6480           2749             XRL     A,#080H
0066 6004           2750             JZ      ?C0198
0068 78FF           2751             MOV     R0,#0FFH
006A E4             2752             CLR     A
006B F6             2753             MOV     @R0,A
006C                2754     ?C0198:
                    2755     ;       if (AC!=0) test_status = 0;
                    2756                             ; SOURCE LINE # 831
006C 30D604         2757             JNB     AC,?C0199
006F 78FF           2758             MOV     R0,#0FFH
0071 E4             2759             CLR     A
0072 F6             2760             MOV     @R0,A
0073                2761     ?C0199:
                    2762     ;       if (OV!=1) test_status = 0;
                    2763                             ; SOURCE LINE # 832
0073 20D204         2764             JB      OV,?C0200
0076 78FF           2765             MOV     R0,#0FFH
0078 E4             2766             CLR     A
0079 F6             2767             MOV     @R0,A
007A                2768     ?C0200:
                    2769     ;       if (CY!=1) test_status = 0;
                    2770                             ; SOURCE LINE # 833
007A 20D704         2771             JB      CY,?C0201
007D 78FF           2772             MOV     R0,#0FFH
007F E4             2773             CLR     A
0080 F6             2774             MOV     @R0,A
0081                2775     ?C0201:
                    2776     ;       OV = 0;
                    2777                             ; SOURCE LINE # 834
0081 C2D2           2778             CLR     OV
                    2779     ;       CY = 0;
                    2780                             ; SOURCE LINE # 835
0083 C2D7           2781             CLR     CY
                    2782     ; 
                    2783     ;       #pragma ASM
                    2784     ;   mov acc,#82H
0085 75E082         2785               mov acc,#82H
                    2786     ;       setb C
0088 D3             2787               setb C
                    2788     ;       subb A,#0C1H
0089 94C1           2789               subb A,#0C1H
                    2790     ;   #pragma ENDASM
                    2791     ;       if (ACC!=0xC0) test_status = 0;
                    2792                             ; SOURCE LINE # 842
008B 64C0           2793             XRL     A,#0C0H
008D 6004           2794             JZ      ?C0202
008F 78FF           2795             MOV     R0,#0FFH
0091 E4             2796             CLR     A
A51 MACRO ASSEMBLER  INSTRUCTION                                                          10/08/2013 10:14:03 PAGE    44

0092 F6             2797             MOV     @R0,A
0093                2798     ?C0202:
                    2799     ;       if (AC!=0) test_status = 0;
                    2800                             ; SOURCE LINE # 843
0093 30D604         2801             JNB     AC,?C0203
0096 78FF           2802             MOV     R0,#0FFH
0098 E4             2803             CLR     A
0099 F6             2804             MOV     @R0,A
009A                2805     ?C0203:
                    2806     ;       if (OV!=0) test_status = 0;
                    2807                             ; SOURCE LINE # 844
009A 30D204         2808             JNB     OV,?C0204
009D 78FF           2809             MOV     R0,#0FFH
009F E4             2810             CLR     A
00A0 F6             2811             MOV     @R0,A
00A1                2812     ?C0204:
                    2813     ;       if (CY!=1) test_status = 0;
                    2814                             ; SOURCE LINE # 845
00A1 20D704         2815             JB      CY,?C0205
00A4 78FF           2816             MOV     R0,#0FFH
00A6 E4             2817             CLR     A
00A7 F6             2818             MOV     @R0,A
00A8                2819     ?C0205:
                    2820     ;       CY = 0; 
                    2821                             ; SOURCE LINE # 846
00A8 C2D7           2822             CLR     CY
                    2823     ;       
                    2824     ;       #pragma ASM 
                    2825     ;       pop acc
00AA D0E0           2826               pop acc
                    2827     ;   pop psw     
00AC D0D0           2828               pop psw       
                    2829     ;   #pragma ENDASM      
                    2830     ; }
                    2831                             ; SOURCE LINE # 852
00AE 22             2832             RET     
                    2833     ; END OF subb_a_da
                    2834     
                    2835     ; 
                    2836     ; 
                    2837     ; void inc_a(void) {
                    2838     
----                2839             RSEG  ?PR?inc_a?INSTRUCTION
0000                2840     inc_a:
                    2841             USING   0
                    2842                             ; SOURCE LINE # 855
                    2843     ;       printf("INC_A\n");
                    2844                             ; SOURCE LINE # 856
0000 7BFF           2845             MOV     R3,#0FFH
0002 7A00     F     2846             MOV     R2,#HIGH (?SC_128)
0004 7900     F     2847             MOV     R1,#LOW (?SC_128)
0006 120000   F     2848             LCALL   _printf
                    2849     ;       #pragma ASM  
                    2850     ;       push psw
0009 C0D0           2851               push psw
                    2852     ;       push acc
000B C0E0           2853               push acc
                    2854     ;   mov  psw,#0H        
000D 75D000         2855               mov  psw,#0H  
                    2856     ;   setb rs0     
0010 D2D3           2857               setb rs0     
                    2858     ;       setb rs1        
0012 D2D4           2859               setb rs1      
                    2860     ;   #pragma ENDASM 
                    2861     ;       
                    2862     ;       #pragma ASM
A51 MACRO ASSEMBLER  INSTRUCTION                                                          10/08/2013 10:14:03 PAGE    45

                    2863     ;       mov acc,#0a5H
0014 75E0A5         2864               mov acc,#0a5H
                    2865     ;       inc A
0017 04             2866               inc A
                    2867     ;   #pragma ENDASM      
                    2868     ;       if (ACC!=0xa6) test_status = 0;
                    2869                             ; SOURCE LINE # 869
0018 64A6           2870             XRL     A,#0A6H
001A 6004           2871             JZ      ?C0207
001C 78FF           2872             MOV     R0,#0FFH
001E E4             2873             CLR     A
001F F6             2874             MOV     @R0,A
0020                2875     ?C0207:
                    2876     ;       if (AC!=0) test_status = 0;
                    2877                             ; SOURCE LINE # 870
0020 30D604         2878             JNB     AC,?C0208
0023 78FF           2879             MOV     R0,#0FFH
0025 E4             2880             CLR     A
0026 F6             2881             MOV     @R0,A
0027                2882     ?C0208:
                    2883     ;       if (OV!=0) test_status = 0;
                    2884                             ; SOURCE LINE # 871
0027 30D204         2885             JNB     OV,?C0209
002A 78FF           2886             MOV     R0,#0FFH
002C E4             2887             CLR     A
002D F6             2888             MOV     @R0,A
002E                2889     ?C0209:
                    2890     ;       if (CY!=0) test_status = 0;
                    2891                             ; SOURCE LINE # 872
002E 30D704         2892             JNB     CY,?C0210
0031 78FF           2893             MOV     R0,#0FFH
0033 E4             2894             CLR     A
0034 F6             2895             MOV     @R0,A
0035                2896     ?C0210:
                    2897     ; 
                    2898     ;       
                    2899     ;       #pragma ASM 
                    2900     ;       pop acc
0035 D0E0           2901               pop acc
                    2902     ;   pop psw     
0037 D0D0           2903               pop psw       
                    2904     ;   #pragma ENDASM      
                    2905     ; }
                    2906                             ; SOURCE LINE # 879
0039 22             2907             RET     
                    2908     ; END OF inc_a
                    2909     
                    2910     ; 
                    2911     ; void inc_rn(void) {
                    2912     
----                2913             RSEG  ?PR?inc_rn?INSTRUCTION
0000                2914     inc_rn:
                    2915             USING   0
                    2916                             ; SOURCE LINE # 881
                    2917     ;       printf("INC_RN\n");
                    2918                             ; SOURCE LINE # 882
0000 7BFF           2919             MOV     R3,#0FFH
0002 7A00     F     2920             MOV     R2,#HIGH (?SC_135)
0004 7900     F     2921             MOV     R1,#LOW (?SC_135)
0006 120000   F     2922             LCALL   _printf
                    2923     ;       #pragma ASM  
                    2924     ;       push psw
0009 C0D0           2925               push psw
                    2926     ;       push acc
000B C0E0           2927               push acc
                    2928     ;   mov  psw,#0H        
A51 MACRO ASSEMBLER  INSTRUCTION                                                          10/08/2013 10:14:03 PAGE    46

000D 75D000         2929               mov  psw,#0H  
                    2930     ;   setb rs0     
0010 D2D3           2931               setb rs0     
                    2932     ;       setb rs1        
0012 D2D4           2933               setb rs1      
                    2934     ;   #pragma ENDASM 
                    2935     ;       
                    2936     ;       #pragma ASM
                    2937     ;       mov 0x1b,#0a5H
0014 751BA5         2938               mov 0x1b,#0a5H
                    2939     ;       inc R3
0017 0B             2940               inc R3
                    2941     ;   #pragma ENDASM      
                    2942     ;       if (R(3,3)!=0xa6) test_status = 0;
                    2943                             ; SOURCE LINE # 895
0018 781B           2944             MOV     R0,#01BH
001A E6             2945             MOV     A,@R0
001B 64A6           2946             XRL     A,#0A6H
001D 6004           2947             JZ      ?C0212
001F 78FF           2948             MOV     R0,#0FFH
0021 E4             2949             CLR     A
0022 F6             2950             MOV     @R0,A
0023                2951     ?C0212:
                    2952     ;       if (AC!=0) test_status = 0;
                    2953                             ; SOURCE LINE # 896
0023 30D604         2954             JNB     AC,?C0213
0026 78FF           2955             MOV     R0,#0FFH
0028 E4             2956             CLR     A
0029 F6             2957             MOV     @R0,A
002A                2958     ?C0213:
                    2959     ;       if (OV!=0) test_status = 0;
                    2960                             ; SOURCE LINE # 897
002A 30D204         2961             JNB     OV,?C0214
002D 78FF           2962             MOV     R0,#0FFH
002F E4             2963             CLR     A
0030 F6             2964             MOV     @R0,A
0031                2965     ?C0214:
                    2966     ;       if (CY!=0) test_status = 0;
                    2967                             ; SOURCE LINE # 898
0031 30D704         2968             JNB     CY,?C0215
0034 78FF           2969             MOV     R0,#0FFH
0036 E4             2970             CLR     A
0037 F6             2971             MOV     @R0,A
0038                2972     ?C0215:
                    2973     ; 
                    2974     ;       
                    2975     ;       #pragma ASM 
                    2976     ;       pop acc
0038 D0E0           2977               pop acc
                    2978     ;   pop psw     
003A D0D0           2979               pop psw       
                    2980     ;   #pragma ENDASM      
                    2981     ; }
                    2982                             ; SOURCE LINE # 905
003C 22             2983             RET     
                    2984     ; END OF inc_rn
                    2985     
                    2986     ; 
                    2987     ; void inc_di(void) {
                    2988     
----                2989             RSEG  ?PR?inc_di?INSTRUCTION
0000                2990     inc_di:
                    2991             USING   0
                    2992                             ; SOURCE LINE # 907
                    2993     ;       printf("INC_DI\n");
                    2994                             ; SOURCE LINE # 908
A51 MACRO ASSEMBLER  INSTRUCTION                                                          10/08/2013 10:14:03 PAGE    47

0000 7BFF           2995             MOV     R3,#0FFH
0002 7A00     F     2996             MOV     R2,#HIGH (?SC_143)
0004 7900     F     2997             MOV     R1,#LOW (?SC_143)
0006 120000   F     2998             LCALL   _printf
                    2999     ;       #pragma ASM  
                    3000     ;       push psw
0009 C0D0           3001               push psw
                    3002     ;       push acc
000B C0E0           3003               push acc
                    3004     ;   mov  psw,#0H        
000D 75D000         3005               mov  psw,#0H  
                    3006     ;   setb rs0     
0010 D2D3           3007               setb rs0     
                    3008     ;       setb rs1        
0012 D2D4           3009               setb rs1      
                    3010     ;   #pragma ENDASM 
                    3011     ;       
                    3012     ;       #pragma ASM
                    3013     ;       mov 0x1c,#0a5H
0014 751CA5         3014               mov 0x1c,#0a5H
                    3015     ;       inc 0x1c
0017 051C           3016               inc 0x1c
                    3017     ;   #pragma ENDASM      
                    3018     ;       if (R(3,4)!=0xa6) test_status = 0;
                    3019                             ; SOURCE LINE # 921
0019 781C           3020             MOV     R0,#01CH
001B E6             3021             MOV     A,@R0
001C 64A6           3022             XRL     A,#0A6H
001E 6004           3023             JZ      ?C0217
0020 78FF           3024             MOV     R0,#0FFH
0022 E4             3025             CLR     A
0023 F6             3026             MOV     @R0,A
0024                3027     ?C0217:
                    3028     ;       if (AC!=0) test_status = 0;
                    3029                             ; SOURCE LINE # 922
0024 30D604         3030             JNB     AC,?C0218
0027 78FF           3031             MOV     R0,#0FFH
0029 E4             3032             CLR     A
002A F6             3033             MOV     @R0,A
002B                3034     ?C0218:
                    3035     ;       if (OV!=0) test_status = 0;
                    3036                             ; SOURCE LINE # 923
002B 30D204         3037             JNB     OV,?C0219
002E 78FF           3038             MOV     R0,#0FFH
0030 E4             3039             CLR     A
0031 F6             3040             MOV     @R0,A
0032                3041     ?C0219:
                    3042     ;       if (CY!=0) test_status = 0;
                    3043                             ; SOURCE LINE # 924
0032 30D704         3044             JNB     CY,?C0220
0035 78FF           3045             MOV     R0,#0FFH
0037 E4             3046             CLR     A
0038 F6             3047             MOV     @R0,A
0039                3048     ?C0220:
                    3049     ; 
                    3050     ;       
                    3051     ;       #pragma ASM 
                    3052     ;       pop acc
0039 D0E0           3053               pop acc
                    3054     ;   pop psw     
003B D0D0           3055               pop psw       
                    3056     ;   #pragma ENDASM      
                    3057     ; }
                    3058                             ; SOURCE LINE # 931
003D 22             3059             RET     
                    3060     ; END OF inc_di
A51 MACRO ASSEMBLER  INSTRUCTION                                                          10/08/2013 10:14:03 PAGE    48

                    3061     
                    3062     ; 
                    3063     ; void inc_ri(void) {
                    3064     
----                3065             RSEG  ?PR?inc_ri?INSTRUCTION
0000                3066     inc_ri:
                    3067             USING   0
                    3068                             ; SOURCE LINE # 933
                    3069     ;       printf("INC_RI\n");
                    3070                             ; SOURCE LINE # 934
0000 7BFF           3071             MOV     R3,#0FFH
0002 7A00     F     3072             MOV     R2,#HIGH (?SC_151)
0004 7900     F     3073             MOV     R1,#LOW (?SC_151)
0006 120000   F     3074             LCALL   _printf
                    3075     ;       #pragma ASM  
                    3076     ;       push psw
0009 C0D0           3077               push psw
                    3078     ;       push acc
000B C0E0           3079               push acc
                    3080     ;   mov  psw,#0H        
000D 75D000         3081               mov  psw,#0H  
                    3082     ;   setb rs0     
0010 D2D3           3083               setb rs0     
                    3084     ;       setb rs1        
0012 D2D4           3085               setb rs1      
                    3086     ;   #pragma ENDASM 
                    3087     ;       
                    3088     ;       #pragma ASM
                    3089     ;       mov 0x1c,#0a5H
0014 751CA5         3090               mov 0x1c,#0a5H
                    3091     ;       mov R1,#1cH
0017 791C           3092               mov R1,#1cH
                    3093     ;       inc @R1
0019 07             3094               inc @R1
                    3095     ;   #pragma ENDASM      
                    3096     ;       if (R(3,4)!=0xa6) test_status = 0;
                    3097                             ; SOURCE LINE # 948
001A 781C           3098             MOV     R0,#01CH
001C E6             3099             MOV     A,@R0
001D 64A6           3100             XRL     A,#0A6H
001F 6004           3101             JZ      ?C0222
0021 78FF           3102             MOV     R0,#0FFH
0023 E4             3103             CLR     A
0024 F6             3104             MOV     @R0,A
0025                3105     ?C0222:
                    3106     ;       if (AC!=0) test_status = 0;
                    3107                             ; SOURCE LINE # 949
0025 30D604         3108             JNB     AC,?C0223
0028 78FF           3109             MOV     R0,#0FFH
002A E4             3110             CLR     A
002B F6             3111             MOV     @R0,A
002C                3112     ?C0223:
                    3113     ;       if (OV!=0) test_status = 0;
                    3114                             ; SOURCE LINE # 950
002C 30D204         3115             JNB     OV,?C0224
002F 78FF           3116             MOV     R0,#0FFH
0031 E4             3117             CLR     A
0032 F6             3118             MOV     @R0,A
0033                3119     ?C0224:
                    3120     ;       if (CY!=0) test_status = 0;
                    3121                             ; SOURCE LINE # 951
0033 30D704         3122             JNB     CY,?C0225
0036 78FF           3123             MOV     R0,#0FFH
0038 E4             3124             CLR     A
0039 F6             3125             MOV     @R0,A
003A                3126     ?C0225:
A51 MACRO ASSEMBLER  INSTRUCTION                                                          10/08/2013 10:14:03 PAGE    49

                    3127     ; 
                    3128     ;       
                    3129     ;       #pragma ASM 
                    3130     ;       pop acc
003A D0E0           3131               pop acc
                    3132     ;   pop psw     
003C D0D0           3133               pop psw       
                    3134     ;   #pragma ENDASM      
                    3135     ; }
                    3136                             ; SOURCE LINE # 958
003E 22             3137             RET     
                    3138     ; END OF inc_ri
                    3139     
                    3140     ; 
                    3141     ; 
                    3142     ; void inc_dp(void) {
                    3143     
----                3144             RSEG  ?PR?inc_dp?INSTRUCTION
0000                3145     inc_dp:
                    3146             USING   0
                    3147                             ; SOURCE LINE # 961
                    3148     ;       printf("INC_DP\n");
                    3149                             ; SOURCE LINE # 962
0000 7BFF           3150             MOV     R3,#0FFH
0002 7A00     F     3151             MOV     R2,#HIGH (?SC_159)
0004 7900     F     3152             MOV     R1,#LOW (?SC_159)
0006 120000   F     3153             LCALL   _printf
                    3154     ;       #pragma ASM  
                    3155     ;       push psw
0009 C0D0           3156               push psw
                    3157     ;       push acc
000B C0E0           3158               push acc
                    3159     ;   mov  psw,#0H        
000D 75D000         3160               mov  psw,#0H  
                    3161     ;   setb rs0     
0010 D2D3           3162               setb rs0     
                    3163     ;       setb rs1        
0012 D2D4           3164               setb rs1      
                    3165     ;   #pragma ENDASM 
                    3166     ;       
                    3167     ;       #pragma ASM
                    3168     ;       mov DPTR,#1234H
0014 901234         3169               mov DPTR,#1234H
                    3170     ;       inc DPTR
0017 A3             3171               inc DPTR
                    3172     ;   #pragma ENDASM      
                    3173     ;       if (DPL!=0x35) test_status = 0;
                    3174                             ; SOURCE LINE # 975
0018 E582           3175             MOV     A,DPL
001A 6435           3176             XRL     A,#035H
001C 6004           3177             JZ      ?C0227
001E 78FF           3178             MOV     R0,#0FFH
0020 E4             3179             CLR     A
0021 F6             3180             MOV     @R0,A
0022                3181     ?C0227:
                    3182     ;       if (DPH!=0x12) test_status = 0;
                    3183                             ; SOURCE LINE # 976
0022 E583           3184             MOV     A,DPH
0024 6412           3185             XRL     A,#012H
0026 6004           3186             JZ      ?C0228
0028 78FF           3187             MOV     R0,#0FFH
002A E4             3188             CLR     A
002B F6             3189             MOV     @R0,A
002C                3190     ?C0228:
                    3191     ;       if (AC!=0) test_status = 0;
                    3192                             ; SOURCE LINE # 977
A51 MACRO ASSEMBLER  INSTRUCTION                                                          10/08/2013 10:14:03 PAGE    50

002C 30D604         3193             JNB     AC,?C0229
002F 78FF           3194             MOV     R0,#0FFH
0031 E4             3195             CLR     A
0032 F6             3196             MOV     @R0,A
0033                3197     ?C0229:
                    3198     ;       if (OV!=0) test_status = 0;
                    3199                             ; SOURCE LINE # 978
0033 30D204         3200             JNB     OV,?C0230
0036 78FF           3201             MOV     R0,#0FFH
0038 E4             3202             CLR     A
0039 F6             3203             MOV     @R0,A
003A                3204     ?C0230:
                    3205     ;       if (CY!=0) test_status = 0;
                    3206                             ; SOURCE LINE # 979
003A 30D704         3207             JNB     CY,?C0231
003D 78FF           3208             MOV     R0,#0FFH
003F E4             3209             CLR     A
0040 F6             3210             MOV     @R0,A
0041                3211     ?C0231:
                    3212     ; 
                    3213     ;       
                    3214     ;       #pragma ASM 
                    3215     ;       pop acc
0041 D0E0           3216               pop acc
                    3217     ;   pop psw     
0043 D0D0           3218               pop psw       
                    3219     ;   #pragma ENDASM      
                    3220     ; }
                    3221                             ; SOURCE LINE # 986
0045 22             3222             RET     
                    3223     ; END OF inc_dp
                    3224     
                    3225     ; 
                    3226     ; 
                    3227     ; void dec_a(void) {
                    3228     
----                3229             RSEG  ?PR?dec_a?INSTRUCTION
0000                3230     dec_a:
                    3231             USING   0
                    3232                             ; SOURCE LINE # 989
                    3233     ;       printf("DEC_A\n");
                    3234                             ; SOURCE LINE # 990
0000 7BFF           3235             MOV     R3,#0FFH
0002 7A00     F     3236             MOV     R2,#HIGH (?SC_167)
0004 7900     F     3237             MOV     R1,#LOW (?SC_167)
0006 120000   F     3238             LCALL   _printf
                    3239     ;       #pragma ASM  
                    3240     ;       push psw
0009 C0D0           3241               push psw
                    3242     ;       push acc
000B C0E0           3243               push acc
                    3244     ;   mov  psw,#0H        
000D 75D000         3245               mov  psw,#0H  
                    3246     ;   setb rs0     
0010 D2D3           3247               setb rs0     
                    3248     ;       setb rs1        
0012 D2D4           3249               setb rs1      
                    3250     ;   #pragma ENDASM 
                    3251     ;       
                    3252     ;       #pragma ASM
                    3253     ;       mov acc,#0a5H
0014 75E0A5         3254               mov acc,#0a5H
                    3255     ;       dec A
0017 14             3256               dec A
                    3257     ;   #pragma ENDASM      
                    3258     ;       if (ACC!=0xa4) test_status = 0;
A51 MACRO ASSEMBLER  INSTRUCTION                                                          10/08/2013 10:14:03 PAGE    51

                    3259                             ; SOURCE LINE # 1003
0018 64A4           3260             XRL     A,#0A4H
001A 6004           3261             JZ      ?C0233
001C 78FF           3262             MOV     R0,#0FFH
001E E4             3263             CLR     A
001F F6             3264             MOV     @R0,A
0020                3265     ?C0233:
                    3266     ;       if (AC!=0) test_status = 0;
                    3267                             ; SOURCE LINE # 1004
0020 30D604         3268             JNB     AC,?C0234
0023 78FF           3269             MOV     R0,#0FFH
0025 E4             3270             CLR     A
0026 F6             3271             MOV     @R0,A
0027                3272     ?C0234:
                    3273     ;       if (OV!=0) test_status = 0;
                    3274                             ; SOURCE LINE # 1005
0027 30D204         3275             JNB     OV,?C0235
002A 78FF           3276             MOV     R0,#0FFH
002C E4             3277             CLR     A
002D F6             3278             MOV     @R0,A
002E                3279     ?C0235:
                    3280     ;       if (CY!=0) test_status = 0;
                    3281                             ; SOURCE LINE # 1006
002E 30D704         3282             JNB     CY,?C0236
0031 78FF           3283             MOV     R0,#0FFH
0033 E4             3284             CLR     A
0034 F6             3285             MOV     @R0,A
0035                3286     ?C0236:
                    3287     ; 
                    3288     ;       
                    3289     ;       #pragma ASM 
                    3290     ;       pop acc
0035 D0E0           3291               pop acc
                    3292     ;   pop psw     
0037 D0D0           3293               pop psw       
                    3294     ;   #pragma ENDASM      
                    3295     ; }
                    3296                             ; SOURCE LINE # 1013
0039 22             3297             RET     
                    3298     ; END OF dec_a
                    3299     
                    3300     ; 
                    3301     ; void dec_rn(void) {
                    3302     
----                3303             RSEG  ?PR?dec_rn?INSTRUCTION
0000                3304     dec_rn:
                    3305             USING   0
                    3306                             ; SOURCE LINE # 1015
                    3307     ;       printf("DEC_RN\n");
                    3308                             ; SOURCE LINE # 1016
0000 7BFF           3309             MOV     R3,#0FFH
0002 7A00     F     3310             MOV     R2,#HIGH (?SC_174)
0004 7900     F     3311             MOV     R1,#LOW (?SC_174)
0006 120000   F     3312             LCALL   _printf
                    3313     ;       #pragma ASM  
                    3314     ;       push psw
0009 C0D0           3315               push psw
                    3316     ;       push acc
000B C0E0           3317               push acc
                    3318     ;   mov  psw,#0H        
000D 75D000         3319               mov  psw,#0H  
                    3320     ;   setb rs0     
0010 D2D3           3321               setb rs0     
                    3322     ;       setb rs1        
0012 D2D4           3323               setb rs1      
                    3324     ;   #pragma ENDASM 
A51 MACRO ASSEMBLER  INSTRUCTION                                                          10/08/2013 10:14:03 PAGE    52

                    3325     ;       
                    3326     ;       #pragma ASM
                    3327     ;       mov 0x1b,#0a5H
0014 751BA5         3328               mov 0x1b,#0a5H
                    3329     ;       dec R3
0017 1B             3330               dec R3
                    3331     ;   #pragma ENDASM      
                    3332     ;       if (R(3,3)!=0xa4) test_status = 0;
                    3333                             ; SOURCE LINE # 1029
0018 781B           3334             MOV     R0,#01BH
001A E6             3335             MOV     A,@R0
001B 64A4           3336             XRL     A,#0A4H
001D 6004           3337             JZ      ?C0238
001F 78FF           3338             MOV     R0,#0FFH
0021 E4             3339             CLR     A
0022 F6             3340             MOV     @R0,A
0023                3341     ?C0238:
                    3342     ;       if (AC!=0) test_status = 0;
                    3343                             ; SOURCE LINE # 1030
0023 30D604         3344             JNB     AC,?C0239
0026 78FF           3345             MOV     R0,#0FFH
0028 E4             3346             CLR     A
0029 F6             3347             MOV     @R0,A
002A                3348     ?C0239:
                    3349     ;       if (OV!=0) test_status = 0;
                    3350                             ; SOURCE LINE # 1031
002A 30D204         3351             JNB     OV,?C0240
002D 78FF           3352             MOV     R0,#0FFH
002F E4             3353             CLR     A
0030 F6             3354             MOV     @R0,A
0031                3355     ?C0240:
                    3356     ;       if (CY!=0) test_status = 0;
                    3357                             ; SOURCE LINE # 1032
0031 30D704         3358             JNB     CY,?C0241
0034 78FF           3359             MOV     R0,#0FFH
0036 E4             3360             CLR     A
0037 F6             3361             MOV     @R0,A
0038                3362     ?C0241:
                    3363     ; 
                    3364     ;       
                    3365     ;       #pragma ASM 
                    3366     ;       pop acc
0038 D0E0           3367               pop acc
                    3368     ;   pop psw     
003A D0D0           3369               pop psw       
                    3370     ;   #pragma ENDASM      
                    3371     ; }
                    3372                             ; SOURCE LINE # 1039
003C 22             3373             RET     
                    3374     ; END OF dec_rn
                    3375     
                    3376     ; 
                    3377     ; void dec_di(void) {
                    3378     
----                3379             RSEG  ?PR?dec_di?INSTRUCTION
0000                3380     dec_di:
                    3381             USING   0
                    3382                             ; SOURCE LINE # 1041
                    3383     ;       printf("DEC_DI\n");
                    3384                             ; SOURCE LINE # 1042
0000 7BFF           3385             MOV     R3,#0FFH
0002 7A00     F     3386             MOV     R2,#HIGH (?SC_182)
0004 7900     F     3387             MOV     R1,#LOW (?SC_182)
0006 120000   F     3388             LCALL   _printf
                    3389     ;       #pragma ASM  
                    3390     ;       push psw
A51 MACRO ASSEMBLER  INSTRUCTION                                                          10/08/2013 10:14:03 PAGE    53

0009 C0D0           3391               push psw
                    3392     ;       push acc
000B C0E0           3393               push acc
                    3394     ;   mov  psw,#0H        
000D 75D000         3395               mov  psw,#0H  
                    3396     ;   setb rs0     
0010 D2D3           3397               setb rs0     
                    3398     ;       setb rs1        
0012 D2D4           3399               setb rs1      
                    3400     ;   #pragma ENDASM 
                    3401     ;       
                    3402     ;       #pragma ASM
                    3403     ;       mov 0x1c,#0a5H
0014 751CA5         3404               mov 0x1c,#0a5H
                    3405     ;       dec 0x1c
0017 151C           3406               dec 0x1c
                    3407     ;   #pragma ENDASM      
                    3408     ;       if (R(3,4)!=0xa4) test_status = 0;
                    3409                             ; SOURCE LINE # 1055
0019 781C           3410             MOV     R0,#01CH
001B E6             3411             MOV     A,@R0
001C 64A4           3412             XRL     A,#0A4H
001E 6004           3413             JZ      ?C0243
0020 78FF           3414             MOV     R0,#0FFH
0022 E4             3415             CLR     A
0023 F6             3416             MOV     @R0,A
0024                3417     ?C0243:
                    3418     ;       if (AC!=0) test_status = 0;
                    3419                             ; SOURCE LINE # 1056
0024 30D604         3420             JNB     AC,?C0244
0027 78FF           3421             MOV     R0,#0FFH
0029 E4             3422             CLR     A
002A F6             3423             MOV     @R0,A
002B                3424     ?C0244:
                    3425     ;       if (OV!=0) test_status = 0;
                    3426                             ; SOURCE LINE # 1057
002B 30D204         3427             JNB     OV,?C0245
002E 78FF           3428             MOV     R0,#0FFH
0030 E4             3429             CLR     A
0031 F6             3430             MOV     @R0,A
0032                3431     ?C0245:
                    3432     ;       if (CY!=0) test_status = 0;
                    3433                             ; SOURCE LINE # 1058
0032 30D704         3434             JNB     CY,?C0246
0035 78FF           3435             MOV     R0,#0FFH
0037 E4             3436             CLR     A
0038 F6             3437             MOV     @R0,A
0039                3438     ?C0246:
                    3439     ; 
                    3440     ;       
                    3441     ;       #pragma ASM 
                    3442     ;       pop acc
0039 D0E0           3443               pop acc
                    3444     ;   pop psw     
003B D0D0           3445               pop psw       
                    3446     ;   #pragma ENDASM      
                    3447     ; }
                    3448                             ; SOURCE LINE # 1065
003D 22             3449             RET     
                    3450     ; END OF dec_di
                    3451     
                    3452     ; 
                    3453     ; void dec_ri(void) {
                    3454     
----                3455             RSEG  ?PR?dec_ri?INSTRUCTION
0000                3456     dec_ri:
A51 MACRO ASSEMBLER  INSTRUCTION                                                          10/08/2013 10:14:03 PAGE    54

                    3457             USING   0
                    3458                             ; SOURCE LINE # 1067
                    3459     ;       printf("DEC_RI\n");
                    3460                             ; SOURCE LINE # 1068
0000 7BFF           3461             MOV     R3,#0FFH
0002 7A00     F     3462             MOV     R2,#HIGH (?SC_190)
0004 7900     F     3463             MOV     R1,#LOW (?SC_190)
0006 120000   F     3464             LCALL   _printf
                    3465     ;       #pragma ASM  
                    3466     ;       push psw
0009 C0D0           3467               push psw
                    3468     ;       push acc
000B C0E0           3469               push acc
                    3470     ;   mov  psw,#0H        
000D 75D000         3471               mov  psw,#0H  
                    3472     ;   setb rs0     
0010 D2D3           3473               setb rs0     
                    3474     ;       setb rs1        
0012 D2D4           3475               setb rs1      
                    3476     ;   #pragma ENDASM 
                    3477     ;       
                    3478     ;       #pragma ASM
                    3479     ;       mov 0x1c,#0a5H
0014 751CA5         3480               mov 0x1c,#0a5H
                    3481     ;       mov R1,#1cH
0017 791C           3482               mov R1,#1cH
                    3483     ;       dec @R1
0019 17             3484               dec @R1
                    3485     ;   #pragma ENDASM      
                    3486     ;       if (R(3,4)!=0xa4) test_status = 0;
                    3487                             ; SOURCE LINE # 1082
001A 781C           3488             MOV     R0,#01CH
001C E6             3489             MOV     A,@R0
001D 64A4           3490             XRL     A,#0A4H
001F 6004           3491             JZ      ?C0248
0021 78FF           3492             MOV     R0,#0FFH
0023 E4             3493             CLR     A
0024 F6             3494             MOV     @R0,A
0025                3495     ?C0248:
                    3496     ;       if (AC!=0) test_status = 0;
                    3497                             ; SOURCE LINE # 1083
0025 30D604         3498             JNB     AC,?C0249
0028 78FF           3499             MOV     R0,#0FFH
002A E4             3500             CLR     A
002B F6             3501             MOV     @R0,A
002C                3502     ?C0249:
                    3503     ;       if (OV!=0) test_status = 0;
                    3504                             ; SOURCE LINE # 1084
002C 30D204         3505             JNB     OV,?C0250
002F 78FF           3506             MOV     R0,#0FFH
0031 E4             3507             CLR     A
0032 F6             3508             MOV     @R0,A
0033                3509     ?C0250:
                    3510     ;       if (CY!=0) test_status = 0;
                    3511                             ; SOURCE LINE # 1085
0033 30D704         3512             JNB     CY,?C0251
0036 78FF           3513             MOV     R0,#0FFH
0038 E4             3514             CLR     A
0039 F6             3515             MOV     @R0,A
003A                3516     ?C0251:
                    3517     ; 
                    3518     ;       
                    3519     ;       #pragma ASM 
                    3520     ;       pop acc
003A D0E0           3521               pop acc
                    3522     ;   pop psw     
A51 MACRO ASSEMBLER  INSTRUCTION                                                          10/08/2013 10:14:03 PAGE    55

003C D0D0           3523               pop psw       
                    3524     ;   #pragma ENDASM      
                    3525     ; }
                    3526                             ; SOURCE LINE # 1092
003E 22             3527             RET     
                    3528     ; END OF dec_ri
                    3529     
                    3530             END
A51 MACRO ASSEMBLER  INSTRUCTION                                                          10/08/2013 10:14:03 PAGE    56

SYMBOL TABLE LISTING
------ ----- -------


N A M E                     T Y P E  V A L U E   ATTRIBUTES

?C0003 . . . . . . . . . .  C ADDR   0022H   R   SEG=?PR?ADD_A_RN?INSTRUCTION
?C0004 . . . . . . . . . .  C ADDR   0029H   R   SEG=?PR?ADD_A_RN?INSTRUCTION
?C0005 . . . . . . . . . .  C ADDR   0030H   R   SEG=?PR?ADD_A_RN?INSTRUCTION
?C0006 . . . . . . . . . .  C ADDR   0037H   R   SEG=?PR?ADD_A_RN?INSTRUCTION
?C0007 . . . . . . . . . .  C ADDR   0047H   R   SEG=?PR?ADD_A_RN?INSTRUCTION
?C0008 . . . . . . . . . .  C ADDR   004EH   R   SEG=?PR?ADD_A_RN?INSTRUCTION
?C0009 . . . . . . . . . .  C ADDR   0055H   R   SEG=?PR?ADD_A_RN?INSTRUCTION
?C0010 . . . . . . . . . .  C ADDR   005CH   R   SEG=?PR?ADD_A_RN?INSTRUCTION
?C0011 . . . . . . . . . .  C ADDR   006CH   R   SEG=?PR?ADD_A_RN?INSTRUCTION
?C0012 . . . . . . . . . .  C ADDR   0073H   R   SEG=?PR?ADD_A_RN?INSTRUCTION
?C0013 . . . . . . . . . .  C ADDR   007AH   R   SEG=?PR?ADD_A_RN?INSTRUCTION
?C0014 . . . . . . . . . .  C ADDR   0081H   R   SEG=?PR?ADD_A_RN?INSTRUCTION
?C0015 . . . . . . . . . .  C ADDR   0093H   R   SEG=?PR?ADD_A_RN?INSTRUCTION
?C0016 . . . . . . . . . .  C ADDR   009AH   R   SEG=?PR?ADD_A_RN?INSTRUCTION
?C0017 . . . . . . . . . .  C ADDR   00A1H   R   SEG=?PR?ADD_A_RN?INSTRUCTION
?C0018 . . . . . . . . . .  C ADDR   00A8H   R   SEG=?PR?ADD_A_RN?INSTRUCTION
?C0020 . . . . . . . . . .  C ADDR   0023H   R   SEG=?PR?ADD_A_DI?INSTRUCTION
?C0021 . . . . . . . . . .  C ADDR   002AH   R   SEG=?PR?ADD_A_DI?INSTRUCTION
?C0022 . . . . . . . . . .  C ADDR   0031H   R   SEG=?PR?ADD_A_DI?INSTRUCTION
?C0023 . . . . . . . . . .  C ADDR   0038H   R   SEG=?PR?ADD_A_DI?INSTRUCTION
?C0024 . . . . . . . . . .  C ADDR   0049H   R   SEG=?PR?ADD_A_DI?INSTRUCTION
?C0025 . . . . . . . . . .  C ADDR   0050H   R   SEG=?PR?ADD_A_DI?INSTRUCTION
?C0026 . . . . . . . . . .  C ADDR   0057H   R   SEG=?PR?ADD_A_DI?INSTRUCTION
?C0027 . . . . . . . . . .  C ADDR   005EH   R   SEG=?PR?ADD_A_DI?INSTRUCTION
?C0028 . . . . . . . . . .  C ADDR   006FH   R   SEG=?PR?ADD_A_DI?INSTRUCTION
?C0029 . . . . . . . . . .  C ADDR   0076H   R   SEG=?PR?ADD_A_DI?INSTRUCTION
?C0030 . . . . . . . . . .  C ADDR   007DH   R   SEG=?PR?ADD_A_DI?INSTRUCTION
?C0031 . . . . . . . . . .  C ADDR   0084H   R   SEG=?PR?ADD_A_DI?INSTRUCTION
?C0032 . . . . . . . . . .  C ADDR   0097H   R   SEG=?PR?ADD_A_DI?INSTRUCTION
?C0033 . . . . . . . . . .  C ADDR   009EH   R   SEG=?PR?ADD_A_DI?INSTRUCTION
?C0034 . . . . . . . . . .  C ADDR   00A5H   R   SEG=?PR?ADD_A_DI?INSTRUCTION
?C0035 . . . . . . . . . .  C ADDR   00ACH   R   SEG=?PR?ADD_A_DI?INSTRUCTION
?C0037 . . . . . . . . . .  C ADDR   0024H   R   SEG=?PR?ADD_A_RI?INSTRUCTION
?C0038 . . . . . . . . . .  C ADDR   002BH   R   SEG=?PR?ADD_A_RI?INSTRUCTION
?C0039 . . . . . . . . . .  C ADDR   0032H   R   SEG=?PR?ADD_A_RI?INSTRUCTION
?C0040 . . . . . . . . . .  C ADDR   0039H   R   SEG=?PR?ADD_A_RI?INSTRUCTION
?C0041 . . . . . . . . . .  C ADDR   004BH   R   SEG=?PR?ADD_A_RI?INSTRUCTION
?C0042 . . . . . . . . . .  C ADDR   0052H   R   SEG=?PR?ADD_A_RI?INSTRUCTION
?C0043 . . . . . . . . . .  C ADDR   0059H   R   SEG=?PR?ADD_A_RI?INSTRUCTION
?C0044 . . . . . . . . . .  C ADDR   0060H   R   SEG=?PR?ADD_A_RI?INSTRUCTION
?C0045 . . . . . . . . . .  C ADDR   0072H   R   SEG=?PR?ADD_A_RI?INSTRUCTION
?C0046 . . . . . . . . . .  C ADDR   0079H   R   SEG=?PR?ADD_A_RI?INSTRUCTION
?C0047 . . . . . . . . . .  C ADDR   0080H   R   SEG=?PR?ADD_A_RI?INSTRUCTION
?C0048 . . . . . . . . . .  C ADDR   0087H   R   SEG=?PR?ADD_A_RI?INSTRUCTION
?C0049 . . . . . . . . . .  C ADDR   009BH   R   SEG=?PR?ADD_A_RI?INSTRUCTION
?C0050 . . . . . . . . . .  C ADDR   00A2H   R   SEG=?PR?ADD_A_RI?INSTRUCTION
?C0051 . . . . . . . . . .  C ADDR   00A9H   R   SEG=?PR?ADD_A_RI?INSTRUCTION
?C0052 . . . . . . . . . .  C ADDR   00B0H   R   SEG=?PR?ADD_A_RI?INSTRUCTION
?C0054 . . . . . . . . . .  C ADDR   0021H   R   SEG=?PR?ADD_A_DA?INSTRUCTION
?C0055 . . . . . . . . . .  C ADDR   0028H   R   SEG=?PR?ADD_A_DA?INSTRUCTION
?C0056 . . . . . . . . . .  C ADDR   002FH   R   SEG=?PR?ADD_A_DA?INSTRUCTION
?C0057 . . . . . . . . . .  C ADDR   0036H   R   SEG=?PR?ADD_A_DA?INSTRUCTION
?C0058 . . . . . . . . . .  C ADDR   0045H   R   SEG=?PR?ADD_A_DA?INSTRUCTION
?C0059 . . . . . . . . . .  C ADDR   004CH   R   SEG=?PR?ADD_A_DA?INSTRUCTION
?C0060 . . . . . . . . . .  C ADDR   0053H   R   SEG=?PR?ADD_A_DA?INSTRUCTION
?C0061 . . . . . . . . . .  C ADDR   005AH   R   SEG=?PR?ADD_A_DA?INSTRUCTION
?C0062 . . . . . . . . . .  C ADDR   0069H   R   SEG=?PR?ADD_A_DA?INSTRUCTION
?C0063 . . . . . . . . . .  C ADDR   0070H   R   SEG=?PR?ADD_A_DA?INSTRUCTION
?C0064 . . . . . . . . . .  C ADDR   0077H   R   SEG=?PR?ADD_A_DA?INSTRUCTION
?C0065 . . . . . . . . . .  C ADDR   007EH   R   SEG=?PR?ADD_A_DA?INSTRUCTION
A51 MACRO ASSEMBLER  INSTRUCTION                                                          10/08/2013 10:14:03 PAGE    57

?C0066 . . . . . . . . . .  C ADDR   008FH   R   SEG=?PR?ADD_A_DA?INSTRUCTION
?C0067 . . . . . . . . . .  C ADDR   0096H   R   SEG=?PR?ADD_A_DA?INSTRUCTION
?C0068 . . . . . . . . . .  C ADDR   009DH   R   SEG=?PR?ADD_A_DA?INSTRUCTION
?C0069 . . . . . . . . . .  C ADDR   00A4H   R   SEG=?PR?ADD_A_DA?INSTRUCTION
?C0071 . . . . . . . . . .  C ADDR   0023H   R   SEG=?PR?ADDC_A_RN?INSTRUCTION
?C0072 . . . . . . . . . .  C ADDR   002AH   R   SEG=?PR?ADDC_A_RN?INSTRUCTION
?C0073 . . . . . . . . . .  C ADDR   0031H   R   SEG=?PR?ADDC_A_RN?INSTRUCTION
?C0074 . . . . . . . . . .  C ADDR   0038H   R   SEG=?PR?ADDC_A_RN?INSTRUCTION
?C0075 . . . . . . . . . .  C ADDR   0049H   R   SEG=?PR?ADDC_A_RN?INSTRUCTION
?C0076 . . . . . . . . . .  C ADDR   0050H   R   SEG=?PR?ADDC_A_RN?INSTRUCTION
?C0077 . . . . . . . . . .  C ADDR   0057H   R   SEG=?PR?ADDC_A_RN?INSTRUCTION
?C0078 . . . . . . . . . .  C ADDR   005EH   R   SEG=?PR?ADDC_A_RN?INSTRUCTION
?C0079 . . . . . . . . . .  C ADDR   006FH   R   SEG=?PR?ADDC_A_RN?INSTRUCTION
?C0080 . . . . . . . . . .  C ADDR   0076H   R   SEG=?PR?ADDC_A_RN?INSTRUCTION
?C0081 . . . . . . . . . .  C ADDR   007DH   R   SEG=?PR?ADDC_A_RN?INSTRUCTION
?C0082 . . . . . . . . . .  C ADDR   0084H   R   SEG=?PR?ADDC_A_RN?INSTRUCTION
?C0083 . . . . . . . . . .  C ADDR   0097H   R   SEG=?PR?ADDC_A_RN?INSTRUCTION
?C0084 . . . . . . . . . .  C ADDR   009EH   R   SEG=?PR?ADDC_A_RN?INSTRUCTION
?C0085 . . . . . . . . . .  C ADDR   00A5H   R   SEG=?PR?ADDC_A_RN?INSTRUCTION
?C0086 . . . . . . . . . .  C ADDR   00ACH   R   SEG=?PR?ADDC_A_RN?INSTRUCTION
?C0088 . . . . . . . . . .  C ADDR   0024H   R   SEG=?PR?ADDC_A_DI?INSTRUCTION
?C0089 . . . . . . . . . .  C ADDR   002BH   R   SEG=?PR?ADDC_A_DI?INSTRUCTION
?C0090 . . . . . . . . . .  C ADDR   0032H   R   SEG=?PR?ADDC_A_DI?INSTRUCTION
?C0091 . . . . . . . . . .  C ADDR   0039H   R   SEG=?PR?ADDC_A_DI?INSTRUCTION
?C0092 . . . . . . . . . .  C ADDR   004BH   R   SEG=?PR?ADDC_A_DI?INSTRUCTION
?C0093 . . . . . . . . . .  C ADDR   0052H   R   SEG=?PR?ADDC_A_DI?INSTRUCTION
?C0094 . . . . . . . . . .  C ADDR   0059H   R   SEG=?PR?ADDC_A_DI?INSTRUCTION
?C0095 . . . . . . . . . .  C ADDR   0060H   R   SEG=?PR?ADDC_A_DI?INSTRUCTION
?C0096 . . . . . . . . . .  C ADDR   0072H   R   SEG=?PR?ADDC_A_DI?INSTRUCTION
?C0097 . . . . . . . . . .  C ADDR   0079H   R   SEG=?PR?ADDC_A_DI?INSTRUCTION
?C0098 . . . . . . . . . .  C ADDR   0080H   R   SEG=?PR?ADDC_A_DI?INSTRUCTION
?C0099 . . . . . . . . . .  C ADDR   0087H   R   SEG=?PR?ADDC_A_DI?INSTRUCTION
?C0100 . . . . . . . . . .  C ADDR   009BH   R   SEG=?PR?ADDC_A_DI?INSTRUCTION
?C0101 . . . . . . . . . .  C ADDR   00A2H   R   SEG=?PR?ADDC_A_DI?INSTRUCTION
?C0102 . . . . . . . . . .  C ADDR   00A9H   R   SEG=?PR?ADDC_A_DI?INSTRUCTION
?C0103 . . . . . . . . . .  C ADDR   00B0H   R   SEG=?PR?ADDC_A_DI?INSTRUCTION
?C0105 . . . . . . . . . .  C ADDR   0025H   R   SEG=?PR?ADDC_A_RI?INSTRUCTION
?C0106 . . . . . . . . . .  C ADDR   002CH   R   SEG=?PR?ADDC_A_RI?INSTRUCTION
?C0107 . . . . . . . . . .  C ADDR   0033H   R   SEG=?PR?ADDC_A_RI?INSTRUCTION
?C0108 . . . . . . . . . .  C ADDR   003AH   R   SEG=?PR?ADDC_A_RI?INSTRUCTION
?C0109 . . . . . . . . . .  C ADDR   004DH   R   SEG=?PR?ADDC_A_RI?INSTRUCTION
?C0110 . . . . . . . . . .  C ADDR   0054H   R   SEG=?PR?ADDC_A_RI?INSTRUCTION
?C0111 . . . . . . . . . .  C ADDR   005BH   R   SEG=?PR?ADDC_A_RI?INSTRUCTION
?C0112 . . . . . . . . . .  C ADDR   0062H   R   SEG=?PR?ADDC_A_RI?INSTRUCTION
?C0113 . . . . . . . . . .  C ADDR   0075H   R   SEG=?PR?ADDC_A_RI?INSTRUCTION
?C0114 . . . . . . . . . .  C ADDR   007CH   R   SEG=?PR?ADDC_A_RI?INSTRUCTION
?C0115 . . . . . . . . . .  C ADDR   0083H   R   SEG=?PR?ADDC_A_RI?INSTRUCTION
?C0116 . . . . . . . . . .  C ADDR   008AH   R   SEG=?PR?ADDC_A_RI?INSTRUCTION
?C0117 . . . . . . . . . .  C ADDR   009FH   R   SEG=?PR?ADDC_A_RI?INSTRUCTION
?C0118 . . . . . . . . . .  C ADDR   00A6H   R   SEG=?PR?ADDC_A_RI?INSTRUCTION
?C0119 . . . . . . . . . .  C ADDR   00ADH   R   SEG=?PR?ADDC_A_RI?INSTRUCTION
?C0120 . . . . . . . . . .  C ADDR   00B4H   R   SEG=?PR?ADDC_A_RI?INSTRUCTION
?C0122 . . . . . . . . . .  C ADDR   0022H   R   SEG=?PR?ADDC_A_DA?INSTRUCTION
?C0123 . . . . . . . . . .  C ADDR   0029H   R   SEG=?PR?ADDC_A_DA?INSTRUCTION
?C0124 . . . . . . . . . .  C ADDR   0030H   R   SEG=?PR?ADDC_A_DA?INSTRUCTION
?C0125 . . . . . . . . . .  C ADDR   0037H   R   SEG=?PR?ADDC_A_DA?INSTRUCTION
?C0126 . . . . . . . . . .  C ADDR   0047H   R   SEG=?PR?ADDC_A_DA?INSTRUCTION
?C0127 . . . . . . . . . .  C ADDR   004EH   R   SEG=?PR?ADDC_A_DA?INSTRUCTION
?C0128 . . . . . . . . . .  C ADDR   0055H   R   SEG=?PR?ADDC_A_DA?INSTRUCTION
?C0129 . . . . . . . . . .  C ADDR   005CH   R   SEG=?PR?ADDC_A_DA?INSTRUCTION
?C0130 . . . . . . . . . .  C ADDR   006CH   R   SEG=?PR?ADDC_A_DA?INSTRUCTION
?C0131 . . . . . . . . . .  C ADDR   0073H   R   SEG=?PR?ADDC_A_DA?INSTRUCTION
?C0132 . . . . . . . . . .  C ADDR   007AH   R   SEG=?PR?ADDC_A_DA?INSTRUCTION
?C0133 . . . . . . . . . .  C ADDR   0081H   R   SEG=?PR?ADDC_A_DA?INSTRUCTION
?C0134 . . . . . . . . . .  C ADDR   0093H   R   SEG=?PR?ADDC_A_DA?INSTRUCTION
?C0135 . . . . . . . . . .  C ADDR   009AH   R   SEG=?PR?ADDC_A_DA?INSTRUCTION
A51 MACRO ASSEMBLER  INSTRUCTION                                                          10/08/2013 10:14:03 PAGE    58

?C0136 . . . . . . . . . .  C ADDR   00A1H   R   SEG=?PR?ADDC_A_DA?INSTRUCTION
?C0137 . . . . . . . . . .  C ADDR   00A8H   R   SEG=?PR?ADDC_A_DA?INSTRUCTION
?C0139 . . . . . . . . . .  C ADDR   0023H   R   SEG=?PR?SUBB_A_RN?INSTRUCTION
?C0140 . . . . . . . . . .  C ADDR   002AH   R   SEG=?PR?SUBB_A_RN?INSTRUCTION
?C0141 . . . . . . . . . .  C ADDR   0031H   R   SEG=?PR?SUBB_A_RN?INSTRUCTION
?C0142 . . . . . . . . . .  C ADDR   0038H   R   SEG=?PR?SUBB_A_RN?INSTRUCTION
?C0143 . . . . . . . . . .  C ADDR   0049H   R   SEG=?PR?SUBB_A_RN?INSTRUCTION
?C0144 . . . . . . . . . .  C ADDR   0050H   R   SEG=?PR?SUBB_A_RN?INSTRUCTION
?C0145 . . . . . . . . . .  C ADDR   0057H   R   SEG=?PR?SUBB_A_RN?INSTRUCTION
?C0146 . . . . . . . . . .  C ADDR   005EH   R   SEG=?PR?SUBB_A_RN?INSTRUCTION
?C0147 . . . . . . . . . .  C ADDR   006FH   R   SEG=?PR?SUBB_A_RN?INSTRUCTION
?C0148 . . . . . . . . . .  C ADDR   0076H   R   SEG=?PR?SUBB_A_RN?INSTRUCTION
?C0149 . . . . . . . . . .  C ADDR   007DH   R   SEG=?PR?SUBB_A_RN?INSTRUCTION
?C0150 . . . . . . . . . .  C ADDR   0084H   R   SEG=?PR?SUBB_A_RN?INSTRUCTION
?C0151 . . . . . . . . . .  C ADDR   0097H   R   SEG=?PR?SUBB_A_RN?INSTRUCTION
?C0152 . . . . . . . . . .  C ADDR   009EH   R   SEG=?PR?SUBB_A_RN?INSTRUCTION
?C0153 . . . . . . . . . .  C ADDR   00A5H   R   SEG=?PR?SUBB_A_RN?INSTRUCTION
?C0154 . . . . . . . . . .  C ADDR   00ACH   R   SEG=?PR?SUBB_A_RN?INSTRUCTION
?C0156 . . . . . . . . . .  C ADDR   0024H   R   SEG=?PR?SUBB_A_DI?INSTRUCTION
?C0157 . . . . . . . . . .  C ADDR   002BH   R   SEG=?PR?SUBB_A_DI?INSTRUCTION
?C0158 . . . . . . . . . .  C ADDR   0032H   R   SEG=?PR?SUBB_A_DI?INSTRUCTION
?C0159 . . . . . . . . . .  C ADDR   0039H   R   SEG=?PR?SUBB_A_DI?INSTRUCTION
?C0160 . . . . . . . . . .  C ADDR   004BH   R   SEG=?PR?SUBB_A_DI?INSTRUCTION
?C0161 . . . . . . . . . .  C ADDR   0052H   R   SEG=?PR?SUBB_A_DI?INSTRUCTION
?C0162 . . . . . . . . . .  C ADDR   0059H   R   SEG=?PR?SUBB_A_DI?INSTRUCTION
?C0163 . . . . . . . . . .  C ADDR   0060H   R   SEG=?PR?SUBB_A_DI?INSTRUCTION
?C0164 . . . . . . . . . .  C ADDR   0072H   R   SEG=?PR?SUBB_A_DI?INSTRUCTION
?C0165 . . . . . . . . . .  C ADDR   0079H   R   SEG=?PR?SUBB_A_DI?INSTRUCTION
?C0166 . . . . . . . . . .  C ADDR   0080H   R   SEG=?PR?SUBB_A_DI?INSTRUCTION
?C0167 . . . . . . . . . .  C ADDR   0087H   R   SEG=?PR?SUBB_A_DI?INSTRUCTION
?C0168 . . . . . . . . . .  C ADDR   009BH   R   SEG=?PR?SUBB_A_DI?INSTRUCTION
?C0169 . . . . . . . . . .  C ADDR   00A2H   R   SEG=?PR?SUBB_A_DI?INSTRUCTION
?C0170 . . . . . . . . . .  C ADDR   00A9H   R   SEG=?PR?SUBB_A_DI?INSTRUCTION
?C0171 . . . . . . . . . .  C ADDR   00B0H   R   SEG=?PR?SUBB_A_DI?INSTRUCTION
?C0173 . . . . . . . . . .  C ADDR   0025H   R   SEG=?PR?SUBB_A_RI?INSTRUCTION
?C0174 . . . . . . . . . .  C ADDR   002CH   R   SEG=?PR?SUBB_A_RI?INSTRUCTION
?C0175 . . . . . . . . . .  C ADDR   0033H   R   SEG=?PR?SUBB_A_RI?INSTRUCTION
?C0176 . . . . . . . . . .  C ADDR   003AH   R   SEG=?PR?SUBB_A_RI?INSTRUCTION
?C0177 . . . . . . . . . .  C ADDR   004DH   R   SEG=?PR?SUBB_A_RI?INSTRUCTION
?C0178 . . . . . . . . . .  C ADDR   0054H   R   SEG=?PR?SUBB_A_RI?INSTRUCTION
?C0179 . . . . . . . . . .  C ADDR   005BH   R   SEG=?PR?SUBB_A_RI?INSTRUCTION
?C0180 . . . . . . . . . .  C ADDR   0062H   R   SEG=?PR?SUBB_A_RI?INSTRUCTION
?C0181 . . . . . . . . . .  C ADDR   0075H   R   SEG=?PR?SUBB_A_RI?INSTRUCTION
?C0182 . . . . . . . . . .  C ADDR   007CH   R   SEG=?PR?SUBB_A_RI?INSTRUCTION
?C0183 . . . . . . . . . .  C ADDR   0083H   R   SEG=?PR?SUBB_A_RI?INSTRUCTION
?C0184 . . . . . . . . . .  C ADDR   008AH   R   SEG=?PR?SUBB_A_RI?INSTRUCTION
?C0185 . . . . . . . . . .  C ADDR   009FH   R   SEG=?PR?SUBB_A_RI?INSTRUCTION
?C0186 . . . . . . . . . .  C ADDR   00A6H   R   SEG=?PR?SUBB_A_RI?INSTRUCTION
?C0187 . . . . . . . . . .  C ADDR   00ADH   R   SEG=?PR?SUBB_A_RI?INSTRUCTION
?C0188 . . . . . . . . . .  C ADDR   00B4H   R   SEG=?PR?SUBB_A_RI?INSTRUCTION
?C0190 . . . . . . . . . .  C ADDR   0022H   R   SEG=?PR?SUBB_A_DA?INSTRUCTION
?C0191 . . . . . . . . . .  C ADDR   0029H   R   SEG=?PR?SUBB_A_DA?INSTRUCTION
?C0192 . . . . . . . . . .  C ADDR   0030H   R   SEG=?PR?SUBB_A_DA?INSTRUCTION
?C0193 . . . . . . . . . .  C ADDR   0037H   R   SEG=?PR?SUBB_A_DA?INSTRUCTION
?C0194 . . . . . . . . . .  C ADDR   0047H   R   SEG=?PR?SUBB_A_DA?INSTRUCTION
?C0195 . . . . . . . . . .  C ADDR   004EH   R   SEG=?PR?SUBB_A_DA?INSTRUCTION
?C0196 . . . . . . . . . .  C ADDR   0055H   R   SEG=?PR?SUBB_A_DA?INSTRUCTION
?C0197 . . . . . . . . . .  C ADDR   005CH   R   SEG=?PR?SUBB_A_DA?INSTRUCTION
?C0198 . . . . . . . . . .  C ADDR   006CH   R   SEG=?PR?SUBB_A_DA?INSTRUCTION
?C0199 . . . . . . . . . .  C ADDR   0073H   R   SEG=?PR?SUBB_A_DA?INSTRUCTION
?C0200 . . . . . . . . . .  C ADDR   007AH   R   SEG=?PR?SUBB_A_DA?INSTRUCTION
?C0201 . . . . . . . . . .  C ADDR   0081H   R   SEG=?PR?SUBB_A_DA?INSTRUCTION
?C0202 . . . . . . . . . .  C ADDR   0093H   R   SEG=?PR?SUBB_A_DA?INSTRUCTION
?C0203 . . . . . . . . . .  C ADDR   009AH   R   SEG=?PR?SUBB_A_DA?INSTRUCTION
?C0204 . . . . . . . . . .  C ADDR   00A1H   R   SEG=?PR?SUBB_A_DA?INSTRUCTION
?C0205 . . . . . . . . . .  C ADDR   00A8H   R   SEG=?PR?SUBB_A_DA?INSTRUCTION
A51 MACRO ASSEMBLER  INSTRUCTION                                                          10/08/2013 10:14:03 PAGE    59

?C0207 . . . . . . . . . .  C ADDR   0020H   R   SEG=?PR?INC_A?INSTRUCTION
?C0208 . . . . . . . . . .  C ADDR   0027H   R   SEG=?PR?INC_A?INSTRUCTION
?C0209 . . . . . . . . . .  C ADDR   002EH   R   SEG=?PR?INC_A?INSTRUCTION
?C0210 . . . . . . . . . .  C ADDR   0035H   R   SEG=?PR?INC_A?INSTRUCTION
?C0212 . . . . . . . . . .  C ADDR   0023H   R   SEG=?PR?INC_RN?INSTRUCTION
?C0213 . . . . . . . . . .  C ADDR   002AH   R   SEG=?PR?INC_RN?INSTRUCTION
?C0214 . . . . . . . . . .  C ADDR   0031H   R   SEG=?PR?INC_RN?INSTRUCTION
?C0215 . . . . . . . . . .  C ADDR   0038H   R   SEG=?PR?INC_RN?INSTRUCTION
?C0217 . . . . . . . . . .  C ADDR   0024H   R   SEG=?PR?INC_DI?INSTRUCTION
?C0218 . . . . . . . . . .  C ADDR   002BH   R   SEG=?PR?INC_DI?INSTRUCTION
?C0219 . . . . . . . . . .  C ADDR   0032H   R   SEG=?PR?INC_DI?INSTRUCTION
?C0220 . . . . . . . . . .  C ADDR   0039H   R   SEG=?PR?INC_DI?INSTRUCTION
?C0222 . . . . . . . . . .  C ADDR   0025H   R   SEG=?PR?INC_RI?INSTRUCTION
?C0223 . . . . . . . . . .  C ADDR   002CH   R   SEG=?PR?INC_RI?INSTRUCTION
?C0224 . . . . . . . . . .  C ADDR   0033H   R   SEG=?PR?INC_RI?INSTRUCTION
?C0225 . . . . . . . . . .  C ADDR   003AH   R   SEG=?PR?INC_RI?INSTRUCTION
?C0227 . . . . . . . . . .  C ADDR   0022H   R   SEG=?PR?INC_DP?INSTRUCTION
?C0228 . . . . . . . . . .  C ADDR   002CH   R   SEG=?PR?INC_DP?INSTRUCTION
?C0229 . . . . . . . . . .  C ADDR   0033H   R   SEG=?PR?INC_DP?INSTRUCTION
?C0230 . . . . . . . . . .  C ADDR   003AH   R   SEG=?PR?INC_DP?INSTRUCTION
?C0231 . . . . . . . . . .  C ADDR   0041H   R   SEG=?PR?INC_DP?INSTRUCTION
?C0233 . . . . . . . . . .  C ADDR   0020H   R   SEG=?PR?DEC_A?INSTRUCTION
?C0234 . . . . . . . . . .  C ADDR   0027H   R   SEG=?PR?DEC_A?INSTRUCTION
?C0235 . . . . . . . . . .  C ADDR   002EH   R   SEG=?PR?DEC_A?INSTRUCTION
?C0236 . . . . . . . . . .  C ADDR   0035H   R   SEG=?PR?DEC_A?INSTRUCTION
?C0238 . . . . . . . . . .  C ADDR   0023H   R   SEG=?PR?DEC_RN?INSTRUCTION
?C0239 . . . . . . . . . .  C ADDR   002AH   R   SEG=?PR?DEC_RN?INSTRUCTION
?C0240 . . . . . . . . . .  C ADDR   0031H   R   SEG=?PR?DEC_RN?INSTRUCTION
?C0241 . . . . . . . . . .  C ADDR   0038H   R   SEG=?PR?DEC_RN?INSTRUCTION
?C0243 . . . . . . . . . .  C ADDR   0024H   R   SEG=?PR?DEC_DI?INSTRUCTION
?C0244 . . . . . . . . . .  C ADDR   002BH   R   SEG=?PR?DEC_DI?INSTRUCTION
?C0245 . . . . . . . . . .  C ADDR   0032H   R   SEG=?PR?DEC_DI?INSTRUCTION
?C0246 . . . . . . . . . .  C ADDR   0039H   R   SEG=?PR?DEC_DI?INSTRUCTION
?C0248 . . . . . . . . . .  C ADDR   0025H   R   SEG=?PR?DEC_RI?INSTRUCTION
?C0249 . . . . . . . . . .  C ADDR   002CH   R   SEG=?PR?DEC_RI?INSTRUCTION
?C0250 . . . . . . . . . .  C ADDR   0033H   R   SEG=?PR?DEC_RI?INSTRUCTION
?C0251 . . . . . . . . . .  C ADDR   003AH   R   SEG=?PR?DEC_RI?INSTRUCTION
?CO?INSTRUCTION. . . . . .  C SEG    00C6H       REL=UNIT
?PR?ADDC_A_DA?INSTRUCTION.  C SEG    00AFH       REL=UNIT
?PR?ADDC_A_DI?INSTRUCTION.  C SEG    00B7H       REL=UNIT
?PR?ADDC_A_RI?INSTRUCTION.  C SEG    00BBH       REL=UNIT
?PR?ADDC_A_RN?INSTRUCTION.  C SEG    00B3H       REL=UNIT
?PR?ADD_A_DA?INSTRUCTION .  C SEG    00ABH       REL=UNIT
?PR?ADD_A_DI?INSTRUCTION .  C SEG    00B3H       REL=UNIT
?PR?ADD_A_RI?INSTRUCTION .  C SEG    00B7H       REL=UNIT
?PR?ADD_A_RN?INSTRUCTION .  C SEG    00AFH       REL=UNIT
?PR?ARITHMETIC?INSTRUCTION  C SEG    000CH       REL=UNIT
?PR?DEC_A?INSTRUCTION. . .  C SEG    003AH       REL=UNIT
?PR?DEC_DI?INSTRUCTION . .  C SEG    003EH       REL=UNIT
?PR?DEC_RI?INSTRUCTION . .  C SEG    003FH       REL=UNIT
?PR?DEC_RN?INSTRUCTION . .  C SEG    003DH       REL=UNIT
?PR?INC_A?INSTRUCTION. . .  C SEG    003AH       REL=UNIT
?PR?INC_DI?INSTRUCTION . .  C SEG    003EH       REL=UNIT
?PR?INC_DP?INSTRUCTION . .  C SEG    0046H       REL=UNIT
?PR?INC_RI?INSTRUCTION . .  C SEG    003FH       REL=UNIT
?PR?INC_RN?INSTRUCTION . .  C SEG    003DH       REL=UNIT
?PR?SUBB_A_DA?INSTRUCTION.  C SEG    00AFH       REL=UNIT
?PR?SUBB_A_DI?INSTRUCTION.  C SEG    00B7H       REL=UNIT
?PR?SUBB_A_RI?INSTRUCTION.  C SEG    00BBH       REL=UNIT
?PR?SUBB_A_RN?INSTRUCTION.  C SEG    00B3H       REL=UNIT
?PR?TEST_ALL?INSTRUCTION .  C SEG    0003H       REL=UNIT
?SC_0. . . . . . . . . . .  C ADDR   0000H   R   SEG=?CO?INSTRUCTION
?SC_10 . . . . . . . . . .  C ADDR   000AH   R   SEG=?CO?INSTRUCTION
?SC_106. . . . . . . . . .  C ADDR   006AH   R   SEG=?CO?INSTRUCTION
?SC_117. . . . . . . . . .  C ADDR   0075H   R   SEG=?CO?INSTRUCTION
?SC_128. . . . . . . . . .  C ADDR   0080H   R   SEG=?CO?INSTRUCTION
A51 MACRO ASSEMBLER  INSTRUCTION                                                          10/08/2013 10:14:03 PAGE    60

?SC_135. . . . . . . . . .  C ADDR   0087H   R   SEG=?CO?INSTRUCTION
?SC_143. . . . . . . . . .  C ADDR   008FH   R   SEG=?CO?INSTRUCTION
?SC_151. . . . . . . . . .  C ADDR   0097H   R   SEG=?CO?INSTRUCTION
?SC_159. . . . . . . . . .  C ADDR   009FH   R   SEG=?CO?INSTRUCTION
?SC_167. . . . . . . . . .  C ADDR   00A7H   R   SEG=?CO?INSTRUCTION
?SC_174. . . . . . . . . .  C ADDR   00AEH   R   SEG=?CO?INSTRUCTION
?SC_182. . . . . . . . . .  C ADDR   00B6H   R   SEG=?CO?INSTRUCTION
?SC_190. . . . . . . . . .  C ADDR   00BEH   R   SEG=?CO?INSTRUCTION
?SC_20 . . . . . . . . . .  C ADDR   0014H   R   SEG=?CO?INSTRUCTION
?SC_30 . . . . . . . . . .  C ADDR   001EH   R   SEG=?CO?INSTRUCTION
?SC_40 . . . . . . . . . .  C ADDR   0028H   R   SEG=?CO?INSTRUCTION
?SC_51 . . . . . . . . . .  C ADDR   0033H   R   SEG=?CO?INSTRUCTION
?SC_62 . . . . . . . . . .  C ADDR   003EH   R   SEG=?CO?INSTRUCTION
?SC_73 . . . . . . . . . .  C ADDR   0049H   R   SEG=?CO?INSTRUCTION
?SC_84 . . . . . . . . . .  C ADDR   0054H   R   SEG=?CO?INSTRUCTION
?SC_95 . . . . . . . . . .  C ADDR   005FH   R   SEG=?CO?INSTRUCTION
?_PRINTF?BYTE. . . . . . .  D ADDR   -----       EXT
AC . . . . . . . . . . . .  B ADDR   00D0H.6 A   
ACC. . . . . . . . . . . .  D ADDR   00E0H   A   
ADDC_A_DA. . . . . . . . .  C ADDR   0000H   R   SEG=?PR?ADDC_A_DA?INSTRUCTION
ADDC_A_DI. . . . . . . . .  C ADDR   0000H   R   SEG=?PR?ADDC_A_DI?INSTRUCTION
ADDC_A_RI. . . . . . . . .  C ADDR   0000H   R   SEG=?PR?ADDC_A_RI?INSTRUCTION
ADDC_A_RN. . . . . . . . .  C ADDR   0000H   R   SEG=?PR?ADDC_A_RN?INSTRUCTION
ADD_A_DA . . . . . . . . .  C ADDR   0000H   R   SEG=?PR?ADD_A_DA?INSTRUCTION
ADD_A_DI . . . . . . . . .  C ADDR   0000H   R   SEG=?PR?ADD_A_DI?INSTRUCTION
ADD_A_RI . . . . . . . . .  C ADDR   0000H   R   SEG=?PR?ADD_A_RI?INSTRUCTION
ADD_A_RN . . . . . . . . .  C ADDR   0000H   R   SEG=?PR?ADD_A_RN?INSTRUCTION
ARITHMETIC . . . . . . . .  C ADDR   0000H   R   SEG=?PR?ARITHMETIC?INSTRUCTION
B. . . . . . . . . . . . .  D ADDR   00F0H   A   
CP_RL2 . . . . . . . . . .  B ADDR   00C8H.0 A   
CY . . . . . . . . . . . .  B ADDR   00D0H.7 A   
C_T2 . . . . . . . . . . .  B ADDR   00C8H.1 A   
DEC_A. . . . . . . . . . .  C ADDR   0000H   R   SEG=?PR?DEC_A?INSTRUCTION
DEC_DI . . . . . . . . . .  C ADDR   0000H   R   SEG=?PR?DEC_DI?INSTRUCTION
DEC_RI . . . . . . . . . .  C ADDR   0000H   R   SEG=?PR?DEC_RI?INSTRUCTION
DEC_RN . . . . . . . . . .  C ADDR   0000H   R   SEG=?PR?DEC_RN?INSTRUCTION
DPH. . . . . . . . . . . .  D ADDR   0083H   A   
DPL. . . . . . . . . . . .  D ADDR   0082H   A   
EA . . . . . . . . . . . .  B ADDR   00A8H.7 A   
ES . . . . . . . . . . . .  B ADDR   00A8H.4 A   
ET0. . . . . . . . . . . .  B ADDR   00A8H.1 A   
ET1. . . . . . . . . . . .  B ADDR   00A8H.3 A   
ET2. . . . . . . . . . . .  B ADDR   00A8H.5 A   
EX0. . . . . . . . . . . .  B ADDR   00A8H.0 A   
EX1. . . . . . . . . . . .  B ADDR   00A8H.2 A   
EXEN2. . . . . . . . . . .  B ADDR   00C8H.3 A   
EXF2 . . . . . . . . . . .  B ADDR   00C8H.6 A   
F0 . . . . . . . . . . . .  B ADDR   00D0H.5 A   
IE . . . . . . . . . . . .  D ADDR   00A8H   A   
IE0. . . . . . . . . . . .  B ADDR   0088H.1 A   
IE1. . . . . . . . . . . .  B ADDR   0088H.3 A   
INC_A. . . . . . . . . . .  C ADDR   0000H   R   SEG=?PR?INC_A?INSTRUCTION
INC_DI . . . . . . . . . .  C ADDR   0000H   R   SEG=?PR?INC_DI?INSTRUCTION
INC_DP . . . . . . . . . .  C ADDR   0000H   R   SEG=?PR?INC_DP?INSTRUCTION
INC_RI . . . . . . . . . .  C ADDR   0000H   R   SEG=?PR?INC_RI?INSTRUCTION
INC_RN . . . . . . . . . .  C ADDR   0000H   R   SEG=?PR?INC_RN?INSTRUCTION
INSTRUCTION. . . . . . . .  N NUMB   -----       
INT0 . . . . . . . . . . .  B ADDR   00B0H.2 A   
INT1 . . . . . . . . . . .  B ADDR   00B0H.3 A   
IP . . . . . . . . . . . .  D ADDR   00B8H   A   
IT0. . . . . . . . . . . .  B ADDR   0088H.0 A   
IT1. . . . . . . . . . . .  B ADDR   0088H.2 A   
OV . . . . . . . . . . . .  B ADDR   00D0H.2 A   
P. . . . . . . . . . . . .  B ADDR   00D0H.0 A   
P0 . . . . . . . . . . . .  D ADDR   0080H   A   
P1 . . . . . . . . . . . .  D ADDR   0090H   A   
A51 MACRO ASSEMBLER  INSTRUCTION                                                          10/08/2013 10:14:03 PAGE    61

P2 . . . . . . . . . . . .  D ADDR   00A0H   A   
P3 . . . . . . . . . . . .  D ADDR   00B0H   A   
PCON . . . . . . . . . . .  D ADDR   0087H   A   
PS . . . . . . . . . . . .  B ADDR   00B8H.4 A   
PSW. . . . . . . . . . . .  D ADDR   00D0H   A   
PT0. . . . . . . . . . . .  B ADDR   00B8H.1 A   
PT1. . . . . . . . . . . .  B ADDR   00B8H.3 A   
PT2. . . . . . . . . . . .  B ADDR   00B8H.5 A   
PX0. . . . . . . . . . . .  B ADDR   00B8H.0 A   
PX1. . . . . . . . . . . .  B ADDR   00B8H.2 A   
RB8. . . . . . . . . . . .  B ADDR   0098H.2 A   
RCAP2H . . . . . . . . . .  D ADDR   00CBH   A   
RCAP2L . . . . . . . . . .  D ADDR   00CAH   A   
RCLK . . . . . . . . . . .  B ADDR   00C8H.5 A   
RD . . . . . . . . . . . .  B ADDR   00B0H.7 A   
REN. . . . . . . . . . . .  B ADDR   0098H.4 A   
RI . . . . . . . . . . . .  B ADDR   0098H.0 A   
RS0. . . . . . . . . . . .  B ADDR   00D0H.3 A   
RS1. . . . . . . . . . . .  B ADDR   00D0H.4 A   
RXD. . . . . . . . . . . .  B ADDR   00B0H.0 A   
SBUF . . . . . . . . . . .  D ADDR   0099H   A   
SCON . . . . . . . . . . .  D ADDR   0098H   A   
SM0. . . . . . . . . . . .  B ADDR   0098H.7 A   
SM1. . . . . . . . . . . .  B ADDR   0098H.6 A   
SM2. . . . . . . . . . . .  B ADDR   0098H.5 A   
SP . . . . . . . . . . . .  D ADDR   0081H   A   
SUBB_A_DA. . . . . . . . .  C ADDR   0000H   R   SEG=?PR?SUBB_A_DA?INSTRUCTION
SUBB_A_DI. . . . . . . . .  C ADDR   0000H   R   SEG=?PR?SUBB_A_DI?INSTRUCTION
SUBB_A_RI. . . . . . . . .  C ADDR   0000H   R   SEG=?PR?SUBB_A_RI?INSTRUCTION
SUBB_A_RN. . . . . . . . .  C ADDR   0000H   R   SEG=?PR?SUBB_A_RN?INSTRUCTION
T0 . . . . . . . . . . . .  B ADDR   00B0H.4 A   
T1 . . . . . . . . . . . .  B ADDR   00B0H.5 A   
T2 . . . . . . . . . . . .  B ADDR   0090H.0 A   
T2CON. . . . . . . . . . .  D ADDR   00C8H   A   
T2EX . . . . . . . . . . .  B ADDR   0090H.1 A   
TB8. . . . . . . . . . . .  B ADDR   0098H.3 A   
TCLK . . . . . . . . . . .  B ADDR   00C8H.4 A   
TCON . . . . . . . . . . .  D ADDR   0088H   A   
TEST_ALL . . . . . . . . .  C ADDR   0000H   R   SEG=?PR?TEST_ALL?INSTRUCTION
TF0. . . . . . . . . . . .  B ADDR   0088H.5 A   
TF1. . . . . . . . . . . .  B ADDR   0088H.7 A   
TF2. . . . . . . . . . . .  B ADDR   00C8H.7 A   
TH0. . . . . . . . . . . .  D ADDR   008CH   A   
TH1. . . . . . . . . . . .  D ADDR   008DH   A   
TH2. . . . . . . . . . . .  D ADDR   00CDH   A   
TI . . . . . . . . . . . .  B ADDR   0098H.1 A   
TL0. . . . . . . . . . . .  D ADDR   008AH   A   
TL1. . . . . . . . . . . .  D ADDR   008BH   A   
TL2. . . . . . . . . . . .  D ADDR   00CCH   A   
TMOD . . . . . . . . . . .  D ADDR   0089H   A   
TR0. . . . . . . . . . . .  B ADDR   0088H.4 A   
TR1. . . . . . . . . . . .  B ADDR   0088H.6 A   
TR2. . . . . . . . . . . .  B ADDR   00C8H.2 A   
TXD. . . . . . . . . . . .  B ADDR   00B0H.1 A   
WR . . . . . . . . . . . .  B ADDR   00B0H.6 A   
_PRINTF. . . . . . . . . .  C ADDR   -----       EXT


REGISTER BANK(S) USED: 0 


ASSEMBLY COMPLETE.  0 WARNING(S), 0 ERROR(S)
